
lifinity_v2.so:	file format elf64-bpf

Disassembly of section .text:

0000000000000120 <.text>:
      36:	bf 37 00 00 00 00 00 00	r7 = r3
      37:	7b 1a 28 ff 00 00 00 00	*(u64 *)(r10 - 0xd8) = r1
      38:	7b 5a 48 ff 00 00 00 00	*(u64 *)(r10 - 0xb8) = r5
      39:	7b 4a 40 ff 00 00 00 00	*(u64 *)(r10 - 0xc0) = r4
      40:	bf a1 00 00 00 00 00 00	r1 = r10
      41:	07 01 00 00 48 ff ff ff	r1 += -0xb8
      42:	7b 1a 38 ff 00 00 00 00	*(u64 *)(r10 - 0xc8) = r1
      43:	7b 2a 30 ff 00 00 00 00	*(u64 *)(r10 - 0xd0) = r2
      44:	55 02 22 00 00 00 00 00	if r2 != 0x0 goto +0x22 <.text+0x158>
      45:	b7 01 00 00 01 00 00 00	r1 = 0x1
      46:	7b 1a 50 ff 00 00 00 00	*(u64 *)(r10 - 0xb0) = r1
      47:	b7 06 00 00 00 00 00 00	r6 = 0x0
      48:	7b 6a 58 ff 00 00 00 00	*(u64 *)(r10 - 0xa8) = r6
      49:	7b 6a 60 ff 00 00 00 00	*(u64 *)(r10 - 0xa0) = r6
      50:	b7 01 00 00 03 00 00 00	r1 = 0x3
      51:	73 1a f0 ff 00 00 00 00	*(u8 *)(r10 - 0x10) = w1
      52:	b7 08 00 00 20 00 00 00	r8 = 0x20
      53:	7b 8a e8 ff 00 00 00 00	*(u64 *)(r10 - 0x18) = r8
      54:	18 09 00 00 70 67 07 00 00 00 00 00 00 00 00 00	r9 = 0x76770 ll
      56:	7b 9a e0 ff 00 00 00 00	*(u64 *)(r10 - 0x20) = r9
      57:	bf a1 00 00 00 00 00 00	r1 = r10
      58:	07 01 00 00 50 ff ff ff	r1 += -0xb0
      59:	7b 1a d8 ff 00 00 00 00	*(u64 *)(r10 - 0x28) = r1
      60:	7b 6a c8 ff 00 00 00 00	*(u64 *)(r10 - 0x38) = r6
      61:	7b 6a b8 ff 00 00 00 00	*(u64 *)(r10 - 0x48) = r6
      62:	bf a1 00 00 00 00 00 00	r1 = r10
      63:	07 01 00 00 40 ff ff ff	r1 += -0xc0
      64:	bf a2 00 00 00 00 00 00	r2 = r10
      65:	07 02 00 00 b8 ff ff ff	r2 += -0x48
      66:	85 10 00 00 06 d7 00 00	call 0xd706
      67:	15 00 5d 00 00 00 00 00	if r0 == 0x0 goto +0x5d <.text+0x3e8>
      68:	bf a3 00 00 00 00 00 00	r3 = r10
      69:	07 03 00 00 ff ff ff ff	r3 += -0x1
      70:	18 01 00 00 0a 2f 07 00 00 00 00 00 00 00 00 00	r1 = 0x72f0a ll
      72:	b7 02 00 00 37 00 00 00	r2 = 0x37
      73:	18 04 00 00 a0 67 07 00 00 00 00 00 00 00 00 00	r4 = 0x767a0 ll
      75:	18 05 00 00 c0 67 07 00 00 00 00 00 00 00 00 00	r5 = 0x767c0 ll
      77:	85 10 00 00 5c ca 00 00	call 0xca5c
      78:	85 10 00 00 ff ff ff ff	call -0x1
      79:	b7 01 00 00 01 00 00 00	r1 = 0x1
      80:	7b 1a 50 ff 00 00 00 00	*(u64 *)(r10 - 0xb0) = r1
      81:	b7 06 00 00 00 00 00 00	r6 = 0x0
      82:	7b 6a 58 ff 00 00 00 00	*(u64 *)(r10 - 0xa8) = r6
      83:	7b 6a 60 ff 00 00 00 00	*(u64 *)(r10 - 0xa0) = r6
      84:	b7 01 00 00 03 00 00 00	r1 = 0x3
      85:	73 1a f0 ff 00 00 00 00	*(u8 *)(r10 - 0x10) = w1
      86:	b7 08 00 00 20 00 00 00	r8 = 0x20
      87:	7b 8a e8 ff 00 00 00 00	*(u64 *)(r10 - 0x18) = r8
      88:	18 09 00 00 70 67 07 00 00 00 00 00 00 00 00 00	r9 = 0x76770 ll
      90:	7b 9a e0 ff 00 00 00 00	*(u64 *)(r10 - 0x20) = r9
      91:	bf a1 00 00 00 00 00 00	r1 = r10
      92:	07 01 00 00 50 ff ff ff	r1 += -0xb0
      93:	7b 1a d8 ff 00 00 00 00	*(u64 *)(r10 - 0x28) = r1
      94:	7b 6a c8 ff 00 00 00 00	*(u64 *)(r10 - 0x38) = r6
      95:	7b 6a b8 ff 00 00 00 00	*(u64 *)(r10 - 0x48) = r6
      96:	bf a1 00 00 00 00 00 00	r1 = r10
      97:	07 01 00 00 40 ff ff ff	r1 += -0xc0
      98:	bf a2 00 00 00 00 00 00	r2 = r10
      99:	07 02 00 00 b8 ff ff ff	r2 += -0x48
     100:	85 10 00 00 e4 d6 00 00	call 0xd6e4
     101:	15 00 01 00 00 00 00 00	if r0 == 0x0 goto +0x1 <.text+0x218>
     102:	05 00 dd ff 00 00 00 00	goto -0x23 <.text+0x100>
     103:	79 a1 60 ff 00 00 00 00	r1 = *(u64 *)(r10 - 0xa0)
     104:	7b 1a 98 ff 00 00 00 00	*(u64 *)(r10 - 0x68) = r1
     105:	79 a1 58 ff 00 00 00 00	r1 = *(u64 *)(r10 - 0xa8)
     106:	7b 1a 90 ff 00 00 00 00	*(u64 *)(r10 - 0x70) = r1
     107:	79 a1 50 ff 00 00 00 00	r1 = *(u64 *)(r10 - 0xb0)
     108:	7b 1a 88 ff 00 00 00 00	*(u64 *)(r10 - 0x78) = r1
     109:	b7 01 00 00 01 00 00 00	r1 = 0x1
     110:	7b 1a a0 ff 00 00 00 00	*(u64 *)(r10 - 0x60) = r1
     111:	7b 6a a8 ff 00 00 00 00	*(u64 *)(r10 - 0x58) = r6
     112:	7b 6a b0 ff 00 00 00 00	*(u64 *)(r10 - 0x50) = r6
     113:	b7 01 00 00 03 00 00 00	r1 = 0x3
     114:	73 1a f0 ff 00 00 00 00	*(u8 *)(r10 - 0x10) = w1
     115:	7b 8a e8 ff 00 00 00 00	*(u64 *)(r10 - 0x18) = r8
     116:	7b 9a e0 ff 00 00 00 00	*(u64 *)(r10 - 0x20) = r9
     117:	bf a1 00 00 00 00 00 00	r1 = r10
     118:	07 01 00 00 a0 ff ff ff	r1 += -0x60
     119:	7b 1a d8 ff 00 00 00 00	*(u64 *)(r10 - 0x28) = r1
     120:	7b 6a c8 ff 00 00 00 00	*(u64 *)(r10 - 0x38) = r6
     121:	7b 6a b8 ff 00 00 00 00	*(u64 *)(r10 - 0x48) = r6
     122:	bf a2 00 00 00 00 00 00	r2 = r10
     123:	07 02 00 00 b8 ff ff ff	r2 += -0x48
     124:	79 a1 38 ff 00 00 00 00	r1 = *(u64 *)(r10 - 0xc8)
     125:	85 10 00 00 cb d6 00 00	call 0xd6cb
     126:	15 00 01 00 00 00 00 00	if r0 == 0x0 goto +0x1 <.text+0x2e0>
     127:	05 00 c4 ff 00 00 00 00	goto -0x3c <.text+0x100>
     128:	79 a1 b0 ff 00 00 00 00	r1 = *(u64 *)(r10 - 0x50)
     129:	7b 1a 78 ff 00 00 00 00	*(u64 *)(r10 - 0x88) = r1
     130:	79 a1 a8 ff 00 00 00 00	r1 = *(u64 *)(r10 - 0x58)
     131:	7b 1a 70 ff 00 00 00 00	*(u64 *)(r10 - 0x90) = r1
     132:	79 a1 a0 ff 00 00 00 00	r1 = *(u64 *)(r10 - 0x60)
     133:	7b 1a 68 ff 00 00 00 00	*(u64 *)(r10 - 0x98) = r1
     134:	79 a1 88 ff 00 00 00 00	r1 = *(u64 *)(r10 - 0x78)
     135:	7b 1a 50 ff 00 00 00 00	*(u64 *)(r10 - 0xb0) = r1
     136:	79 a1 90 ff 00 00 00 00	r1 = *(u64 *)(r10 - 0x70)
     137:	7b 1a 58 ff 00 00 00 00	*(u64 *)(r10 - 0xa8) = r1
     138:	79 a1 98 ff 00 00 00 00	r1 = *(u64 *)(r10 - 0x68)
     139:	7b 1a 60 ff 00 00 00 00	*(u64 *)(r10 - 0xa0) = r1
     140:	bf a1 00 00 00 00 00 00	r1 = r10
     141:	07 01 00 00 bf ff ff ff	r1 += -0x41
     142:	bf a2 00 00 00 00 00 00	r2 = r10
     143:	07 02 00 00 50 ff ff ff	r2 += -0xb0
     144:	b7 03 00 00 30 00 00 00	r3 = 0x30
     145:	85 10 00 00 2e d7 00 00	call 0xd72e
     146:	bf a1 00 00 00 00 00 00	r1 = r10
     147:	07 01 00 00 50 ff ff ff	r1 += -0xb0
     148:	bf a2 00 00 00 00 00 00	r2 = r10
     149:	07 02 00 00 b8 ff ff ff	r2 += -0x48
     150:	b7 03 00 00 37 00 00 00	r3 = 0x37
     151:	85 10 00 00 28 d7 00 00	call 0xd728
     152:	71 71 40 00 00 00 00 00	w1 = *(u8 *)(r7 + 0x40)
     153:	79 a6 30 ff 00 00 00 00	r6 = *(u64 *)(r10 - 0xd0)
     154:	79 a8 28 ff 00 00 00 00	r8 = *(u64 *)(r10 - 0xd8)
     155:	55 01 00 00 00 00 00 00	if r1 != 0x0 goto +0x0 <.text+0x3c0>
     156:	b7 01 00 00 00 00 00 00	r1 = 0x0
     157:	73 17 40 00 00 00 00 00	*(u8 *)(r7 + 0x40) = w1
     158:	bf 71 00 00 00 00 00 00	r1 = r7
     159:	07 01 00 00 41 00 00 00	r1 += 0x41
     160:	05 00 39 00 00 00 00 00	goto +0x39 <.text+0x5b0>
     161:	79 a1 60 ff 00 00 00 00	r1 = *(u64 *)(r10 - 0xa0)
     162:	7b 1a 98 ff 00 00 00 00	*(u64 *)(r10 - 0x68) = r1
     163:	79 a1 58 ff 00 00 00 00	r1 = *(u64 *)(r10 - 0xa8)
     164:	7b 1a 90 ff 00 00 00 00	*(u64 *)(r10 - 0x70) = r1
     165:	79 a1 50 ff 00 00 00 00	r1 = *(u64 *)(r10 - 0xb0)
     166:	7b 1a 88 ff 00 00 00 00	*(u64 *)(r10 - 0x78) = r1
     167:	b7 01 00 00 01 00 00 00	r1 = 0x1
     168:	7b 1a a0 ff 00 00 00 00	*(u64 *)(r10 - 0x60) = r1
     169:	7b 6a a8 ff 00 00 00 00	*(u64 *)(r10 - 0x58) = r6
     170:	7b 6a b0 ff 00 00 00 00	*(u64 *)(r10 - 0x50) = r6
     171:	b7 01 00 00 03 00 00 00	r1 = 0x3
     172:	73 1a f0 ff 00 00 00 00	*(u8 *)(r10 - 0x10) = w1
     173:	7b 8a e8 ff 00 00 00 00	*(u64 *)(r10 - 0x18) = r8
     174:	7b 9a e0 ff 00 00 00 00	*(u64 *)(r10 - 0x20) = r9
     175:	bf a1 00 00 00 00 00 00	r1 = r10
     176:	07 01 00 00 a0 ff ff ff	r1 += -0x60
     177:	7b 1a d8 ff 00 00 00 00	*(u64 *)(r10 - 0x28) = r1
     178:	7b 6a c8 ff 00 00 00 00	*(u64 *)(r10 - 0x38) = r6
     179:	7b 6a b8 ff 00 00 00 00	*(u64 *)(r10 - 0x48) = r6
     180:	bf a2 00 00 00 00 00 00	r2 = r10
     181:	07 02 00 00 b8 ff ff ff	r2 += -0x48
     182:	79 a1 38 ff 00 00 00 00	r1 = *(u64 *)(r10 - 0xc8)
     183:	85 10 00 00 91 d6 00 00	call 0xd691
     184:	15 00 01 00 00 00 00 00	if r0 == 0x0 goto +0x1 <.text+0x4b0>
     185:	05 00 8a ff 00 00 00 00	goto -0x76 <.text+0x100>
     186:	79 a1 b0 ff 00 00 00 00	r1 = *(u64 *)(r10 - 0x50)
     187:	7b 1a 78 ff 00 00 00 00	*(u64 *)(r10 - 0x88) = r1
     188:	79 a1 a8 ff 00 00 00 00	r1 = *(u64 *)(r10 - 0x58)
     189:	7b 1a 70 ff 00 00 00 00	*(u64 *)(r10 - 0x90) = r1
     190:	79 a1 a0 ff 00 00 00 00	r1 = *(u64 *)(r10 - 0x60)
     191:	7b 1a 68 ff 00 00 00 00	*(u64 *)(r10 - 0x98) = r1
     192:	79 a1 88 ff 00 00 00 00	r1 = *(u64 *)(r10 - 0x78)
     193:	7b 1a 50 ff 00 00 00 00	*(u64 *)(r10 - 0xb0) = r1
     194:	79 a1 90 ff 00 00 00 00	r1 = *(u64 *)(r10 - 0x70)
     195:	7b 1a 58 ff 00 00 00 00	*(u64 *)(r10 - 0xa8) = r1
     196:	79 a1 98 ff 00 00 00 00	r1 = *(u64 *)(r10 - 0x68)
     197:	7b 1a 60 ff 00 00 00 00	*(u64 *)(r10 - 0xa0) = r1
     198:	bf a1 00 00 00 00 00 00	r1 = r10
     199:	07 01 00 00 bf ff ff ff	r1 += -0x41
     200:	bf a2 00 00 00 00 00 00	r2 = r10
     201:	07 02 00 00 50 ff ff ff	r2 += -0xb0
     202:	b7 03 00 00 30 00 00 00	r3 = 0x30
     203:	85 10 00 00 f4 d6 00 00	call 0xd6f4
     204:	bf a1 00 00 00 00 00 00	r1 = r10
     205:	07 01 00 00 50 ff ff ff	r1 += -0xb0
     206:	bf a2 00 00 00 00 00 00	r2 = r10
     207:	07 02 00 00 b8 ff ff ff	r2 += -0x48
     208:	b7 03 00 00 37 00 00 00	r3 = 0x37
     209:	85 10 00 00 ee d6 00 00	call 0xd6ee
     210:	71 71 20 00 00 00 00 00	w1 = *(u8 *)(r7 + 0x20)
     211:	79 a6 30 ff 00 00 00 00	r6 = *(u64 *)(r10 - 0xd0)
     212:	79 a8 28 ff 00 00 00 00	r8 = *(u64 *)(r10 - 0xd8)
     213:	55 01 00 00 00 00 00 00	if r1 != 0x0 goto +0x0 <.text+0x590>
     214:	b7 01 00 00 00 00 00 00	r1 = 0x0
     215:	73 17 20 00 00 00 00 00	*(u8 *)(r7 + 0x20) = w1
     216:	bf 71 00 00 00 00 00 00	r1 = r7
     217:	07 01 00 00 21 00 00 00	r1 += 0x21
     218:	bf a2 00 00 00 00 00 00	r2 = r10
     219:	07 02 00 00 50 ff ff ff	r2 += -0xb0
     220:	b7 03 00 00 37 00 00 00	r3 = 0x37
     221:	85 10 00 00 e2 d6 00 00	call 0xd6e2
     222:	7b 78 08 00 00 00 00 00	*(u64 *)(r8 + 0x8) = r7
     223:	7b 68 00 00 00 00 00 00	*(u64 *)(r8 + 0x0) = r6
     224:	95 00 00 00 00 00 00 00	exit
     225:	bf 37 00 00 00 00 00 00	r7 = r3
     226:	bf 26 00 00 00 00 00 00	r6 = r2
     227:	bf 18 00 00 00 00 00 00	r8 = r1
     228:	55 06 22 00 00 00 00 00	if r6 != 0x0 goto +0x22 <.text+0x718>
     229:	b7 01 00 00 01 00 00 00	r1 = 0x1
     230:	7b 1a a0 ff 00 00 00 00	*(u64 *)(r10 - 0x60) = r1
     231:	b7 01 00 00 00 00 00 00	r1 = 0x0
     232:	7b 1a a8 ff 00 00 00 00	*(u64 *)(r10 - 0x58) = r1
     233:	7b 1a b0 ff 00 00 00 00	*(u64 *)(r10 - 0x50) = r1
     234:	b7 02 00 00 03 00 00 00	r2 = 0x3
     235:	73 2a f0 ff 00 00 00 00	*(u8 *)(r10 - 0x10) = w2
     236:	b7 02 00 00 20 00 00 00	r2 = 0x20
     237:	7b 2a e8 ff 00 00 00 00	*(u64 *)(r10 - 0x18) = r2
     238:	18 02 00 00 70 67 07 00 00 00 00 00 00 00 00 00	r2 = 0x76770 ll
     240:	7b 2a e0 ff 00 00 00 00	*(u64 *)(r10 - 0x20) = r2
     241:	bf a2 00 00 00 00 00 00	r2 = r10
     242:	07 02 00 00 a0 ff ff ff	r2 += -0x60
     243:	7b 2a d8 ff 00 00 00 00	*(u64 *)(r10 - 0x28) = r2
     244:	7b 1a c8 ff 00 00 00 00	*(u64 *)(r10 - 0x38) = r1
     245:	7b 1a b8 ff 00 00 00 00	*(u64 *)(r10 - 0x48) = r1
     246:	bf a3 00 00 00 00 00 00	r3 = r10
     247:	07 03 00 00 b8 ff ff ff	r3 += -0x48
     248:	bf 41 00 00 00 00 00 00	r1 = r4
     249:	bf 52 00 00 00 00 00 00	r2 = r5
     250:	85 10 00 00 61 d0 00 00	call 0xd061
     251:	15 00 23 00 00 00 00 00	if r0 == 0x0 goto +0x23 <.text+0x7d8>
     252:	bf a3 00 00 00 00 00 00	r3 = r10
     253:	07 03 00 00 ff ff ff ff	r3 += -0x1
     254:	18 01 00 00 0a 2f 07 00 00 00 00 00 00 00 00 00	r1 = 0x72f0a ll
     256:	b7 02 00 00 37 00 00 00	r2 = 0x37
     257:	18 04 00 00 a0 67 07 00 00 00 00 00 00 00 00 00	r4 = 0x767a0 ll
     259:	18 05 00 00 c0 67 07 00 00 00 00 00 00 00 00 00	r5 = 0x767c0 ll
     261:	85 10 00 00 a4 c9 00 00	call 0xc9a4
     262:	85 10 00 00 ff ff ff ff	call -0x1
     263:	b7 01 00 00 01 00 00 00	r1 = 0x1
     264:	7b 1a a0 ff 00 00 00 00	*(u64 *)(r10 - 0x60) = r1
     265:	b7 01 00 00 00 00 00 00	r1 = 0x0
     266:	7b 1a a8 ff 00 00 00 00	*(u64 *)(r10 - 0x58) = r1
     267:	7b 1a b0 ff 00 00 00 00	*(u64 *)(r10 - 0x50) = r1
     268:	b7 02 00 00 03 00 00 00	r2 = 0x3
     269:	73 2a f0 ff 00 00 00 00	*(u8 *)(r10 - 0x10) = w2
     270:	b7 02 00 00 20 00 00 00	r2 = 0x20
     271:	7b 2a e8 ff 00 00 00 00	*(u64 *)(r10 - 0x18) = r2
     272:	18 02 00 00 70 67 07 00 00 00 00 00 00 00 00 00	r2 = 0x76770 ll
     274:	7b 2a e0 ff 00 00 00 00	*(u64 *)(r10 - 0x20) = r2
     275:	bf a2 00 00 00 00 00 00	r2 = r10
     276:	07 02 00 00 a0 ff ff ff	r2 += -0x60
     277:	7b 2a d8 ff 00 00 00 00	*(u64 *)(r10 - 0x28) = r2
     278:	7b 1a c8 ff 00 00 00 00	*(u64 *)(r10 - 0x38) = r1
     279:	7b 1a b8 ff 00 00 00 00	*(u64 *)(r10 - 0x48) = r1
     280:	bf a3 00 00 00 00 00 00	r3 = r10
     281:	07 03 00 00 b8 ff ff ff	r3 += -0x48
     282:	bf 41 00 00 00 00 00 00	r1 = r4
     283:	bf 52 00 00 00 00 00 00	r2 = r5
     284:	85 10 00 00 3f d0 00 00	call 0xd03f
     285:	15 00 0a 00 00 00 00 00	if r0 == 0x0 goto +0xa <.text+0x820>
     286:	05 00 dd ff 00 00 00 00	goto -0x23 <.text+0x6c0>
     287:	79 a1 b0 ff 00 00 00 00	r1 = *(u64 *)(r10 - 0x50)
     288:	7b 1a 98 ff 00 00 00 00	*(u64 *)(r10 - 0x68) = r1
     289:	79 a1 a8 ff 00 00 00 00	r1 = *(u64 *)(r10 - 0x58)
     290:	7b 1a 90 ff 00 00 00 00	*(u64 *)(r10 - 0x70) = r1
     291:	79 a1 a0 ff 00 00 00 00	r1 = *(u64 *)(r10 - 0x60)
     292:	7b 1a 88 ff 00 00 00 00	*(u64 *)(r10 - 0x78) = r1
     293:	79 71 00 00 00 00 00 00	r1 = *(u64 *)(r7 + 0x0)
     294:	15 01 00 00 02 00 00 00	if r1 == 0x2 goto +0x0 <.text+0x818>
     295:	05 00 08 00 00 00 00 00	goto +0x8 <.text+0x860>
     296:	79 a1 b0 ff 00 00 00 00	r1 = *(u64 *)(r10 - 0x50)
     297:	7b 1a 98 ff 00 00 00 00	*(u64 *)(r10 - 0x68) = r1
     298:	79 a1 a8 ff 00 00 00 00	r1 = *(u64 *)(r10 - 0x58)
     299:	7b 1a 90 ff 00 00 00 00	*(u64 *)(r10 - 0x70) = r1
     300:	79 a1 a0 ff 00 00 00 00	r1 = *(u64 *)(r10 - 0x60)
     301:	7b 1a 88 ff 00 00 00 00	*(u64 *)(r10 - 0x78) = r1
     302:	79 71 00 00 00 00 00 00	r1 = *(u64 *)(r7 + 0x0)
     303:	15 01 00 00 02 00 00 00	if r1 == 0x2 goto +0x0 <.text+0x860>
     304:	b7 01 00 00 01 00 00 00	r1 = 0x1
     305:	7b 17 00 00 00 00 00 00	*(u64 *)(r7 + 0x0) = r1
     306:	79 a1 88 ff 00 00 00 00	r1 = *(u64 *)(r10 - 0x78)
     307:	7b 17 08 00 00 00 00 00	*(u64 *)(r7 + 0x8) = r1
     308:	79 a1 90 ff 00 00 00 00	r1 = *(u64 *)(r10 - 0x70)
     309:	7b 17 10 00 00 00 00 00	*(u64 *)(r7 + 0x10) = r1
     310:	79 a1 98 ff 00 00 00 00	r1 = *(u64 *)(r10 - 0x68)
     311:	7b 17 18 00 00 00 00 00	*(u64 *)(r7 + 0x18) = r1
     312:	7b 78 08 00 00 00 00 00	*(u64 *)(r8 + 0x8) = r7
     313:	7b 68 00 00 00 00 00 00	*(u64 *)(r8 + 0x0) = r6
     314:	95 00 00 00 00 00 00 00	exit
     315:	bf 16 00 00 00 00 00 00	r6 = r1
     316:	79 21 08 00 00 00 00 00	r1 = *(u64 *)(r2 + 0x8)
     317:	55 01 0b 00 00 00 00 00	if r1 != 0x0 goto +0xb <.text+0x928>
     318:	bf a1 00 00 00 00 00 00	r1 = r10
     319:	07 01 00 00 f0 ff ff ff	r1 += -0x10
     320:	b7 02 00 00 bd 0b 00 00	r2 = 0xbbd
     321:	85 10 00 00 35 b3 00 00	call 0xb335
     322:	79 a1 f0 ff 00 00 00 00	r1 = *(u64 *)(r10 - 0x10)
     323:	79 a2 f8 ff 00 00 00 00	r2 = *(u64 *)(r10 - 0x8)
     324:	b7 03 00 00 02 00 00 00	r3 = 0x2
     325:	73 36 2a 00 00 00 00 00	*(u8 *)(r6 + 0x2a) = w3
     326:	7b 26 08 00 00 00 00 00	*(u64 *)(r6 + 0x8) = r2
     327:	7b 16 00 00 00 00 00 00	*(u64 *)(r6 + 0x0) = r1
     328:	05 00 27 00 00 00 00 00	goto +0x27 <.text+0xa60>
     329:	07 01 00 00 ff ff ff ff	r1 += -0x1
     330:	7b 12 08 00 00 00 00 00	*(u64 *)(r2 + 0x8) = r1
     331:	79 23 00 00 00 00 00 00	r3 = *(u64 *)(r2 + 0x0)
     332:	bf 31 00 00 00 00 00 00	r1 = r3
     333:	07 01 00 00 30 00 00 00	r1 += 0x30
     334:	7b 12 00 00 00 00 00 00	*(u64 *)(r2 + 0x0) = r1
     335:	79 31 08 00 00 00 00 00	r1 = *(u64 *)(r3 + 0x8)
     336:	79 14 00 00 00 00 00 00	r4 = *(u64 *)(r1 + 0x0)
     337:	07 04 00 00 01 00 00 00	r4 += 0x1
     338:	b7 05 00 00 01 00 00 00	r5 = 0x1
     339:	15 04 01 00 00 00 00 00	if r4 == 0x0 goto +0x1 <.text+0x988>
     340:	b7 05 00 00 00 00 00 00	r5 = 0x0
     341:	79 32 00 00 00 00 00 00	r2 = *(u64 *)(r3 + 0x0)
     342:	7b 41 00 00 00 00 00 00	*(u64 *)(r1 + 0x0) = r4
     343:	55 05 02 00 01 00 00 00	if r5 != 0x1 goto +0x2 <.text+0x9b0>
     344:	85 10 00 00 ff ff ff ff	call -0x1
     345:	85 10 00 00 ff ff ff ff	call -0x1
     346:	79 34 10 00 00 00 00 00	r4 = *(u64 *)(r3 + 0x10)
     347:	79 45 00 00 00 00 00 00	r5 = *(u64 *)(r4 + 0x0)
     348:	07 05 00 00 01 00 00 00	r5 += 0x1
     349:	b7 00 00 00 01 00 00 00	r0 = 0x1
     350:	15 05 01 00 00 00 00 00	if r5 == 0x0 goto +0x1 <.text+0x9e0>
     351:	b7 00 00 00 00 00 00 00	r0 = 0x0
     352:	7b 54 00 00 00 00 00 00	*(u64 *)(r4 + 0x0) = r5
     353:	55 00 01 00 01 00 00 00	if r0 != 0x1 goto +0x1 <.text+0x9f8>
     354:	05 00 f5 ff 00 00 00 00	goto -0xb <.text+0x9a0>
     355:	79 35 18 00 00 00 00 00	r5 = *(u64 *)(r3 + 0x18)
     356:	79 30 20 00 00 00 00 00	r0 = *(u64 *)(r3 + 0x20)
     357:	71 37 28 00 00 00 00 00	w7 = *(u8 *)(r3 + 0x28)
     358:	71 38 29 00 00 00 00 00	w8 = *(u8 *)(r3 + 0x29)
     359:	71 33 2a 00 00 00 00 00	w3 = *(u8 *)(r3 + 0x2a)
     360:	73 36 2a 00 00 00 00 00	*(u8 *)(r6 + 0x2a) = w3
     361:	73 86 29 00 00 00 00 00	*(u8 *)(r6 + 0x29) = w8
     362:	73 76 28 00 00 00 00 00	*(u8 *)(r6 + 0x28) = w7
     363:	7b 06 20 00 00 00 00 00	*(u64 *)(r6 + 0x20) = r0
     364:	7b 56 18 00 00 00 00 00	*(u64 *)(r6 + 0x18) = r5
     365:	7b 46 10 00 00 00 00 00	*(u64 *)(r6 + 0x10) = r4
     366:	7b 16 08 00 00 00 00 00	*(u64 *)(r6 + 0x8) = r1
     367:	7b 26 00 00 00 00 00 00	*(u64 *)(r6 + 0x0) = r2
     368:	95 00 00 00 00 00 00 00	exit
     369:	bf 27 00 00 00 00 00 00	r7 = r2
     370:	bf 16 00 00 00 00 00 00	r6 = r1
     371:	79 78 18 00 00 00 00 00	r8 = *(u64 *)(r7 + 0x18)
     372:	79 81 00 00 00 00 00 00	r1 = *(u64 *)(r8 + 0x0)
     373:	15 01 02 00 00 00 00 00	if r1 == 0x0 goto +0x2 <.text+0xaa0>
     374:	b7 01 00 00 01 00 00 00	r1 = 0x1
     375:	05 00 07 00 00 00 00 00	goto +0x7 <.text+0xad8>
     376:	79 81 08 00 00 00 00 00	r1 = *(u64 *)(r8 + 0x8)
     377:	55 01 fc ff 00 00 00 00	if r1 != 0x0 goto -0x4 <.text+0xa90>
     378:	79 81 10 00 00 00 00 00	r1 = *(u64 *)(r8 + 0x10)
     379:	55 01 fa ff 00 00 00 00	if r1 != 0x0 goto -0x6 <.text+0xa90>
     380:	b7 01 00 00 00 00 00 00	r1 = 0x0
     381:	79 82 18 00 00 00 00 00	r2 = *(u64 *)(r8 + 0x18)
     382:	55 02 f7 ff 00 00 00 00	if r2 != 0x0 goto -0x9 <.text+0xa90>
     383:	55 01 03 00 00 00 00 00	if r1 != 0x0 goto +0x3 <.text+0xaf8>
     384:	bf 71 00 00 00 00 00 00	r1 = r7
     385:	85 10 00 00 5a b7 00 00	call 0xb75a
     386:	15 00 64 00 00 00 00 00	if r0 == 0x0 goto +0x64 <.text+0xe18>
     387:	79 81 00 00 00 00 00 00	r1 = *(u64 *)(r8 + 0x0)
     388:	18 02 00 00 1c ce 98 98 00 00 00 00 35 6d eb 3f	r2 = 0x3feb6d359898ce1c ll
     390:	1d 21 24 00 00 00 00 00	if r1 == r2 goto +0x24 <.text+0xc38>
     391:	b7 01 00 00 01 00 00 00	r1 = 0x1
     392:	15 01 31 00 00 00 00 00	if r1 == 0x0 goto +0x31 <.text+0xcb0>
     393:	bf a1 00 00 00 00 00 00	r1 = r10
     394:	07 01 00 00 50 fc ff ff	r1 += -0x3b0
     395:	b7 02 00 00 bf 0b 00 00	r2 = 0xbbf
     396:	85 10 00 00 ea b2 00 00	call 0xb2ea
     397:	79 a3 58 fc 00 00 00 00	r3 = *(u64 *)(r10 - 0x3a8)
     398:	79 a2 50 fc 00 00 00 00	r2 = *(u64 *)(r10 - 0x3b0)
     399:	79 81 18 00 00 00 00 00	r1 = *(u64 *)(r8 + 0x18)
     400:	7b 1a 88 fc 00 00 00 00	*(u64 *)(r10 - 0x378) = r1
     401:	79 81 10 00 00 00 00 00	r1 = *(u64 *)(r8 + 0x10)
     402:	7b 1a 80 fc 00 00 00 00	*(u64 *)(r10 - 0x380) = r1
     403:	79 81 08 00 00 00 00 00	r1 = *(u64 *)(r8 + 0x8)
     404:	7b 1a 78 fc 00 00 00 00	*(u64 *)(r10 - 0x388) = r1
     405:	79 81 00 00 00 00 00 00	r1 = *(u64 *)(r8 + 0x0)
     406:	7b 1a 70 fc 00 00 00 00	*(u64 *)(r10 - 0x390) = r1
     407:	18 01 00 00 1c ce 98 98 00 00 00 00 35 6d eb 3f	r1 = 0x3feb6d359898ce1c ll
     409:	7b 1a 90 fc 00 00 00 00	*(u64 *)(r10 - 0x370) = r1
     410:	18 01 00 00 2c 34 8d ca 00 00 00 00 a2 40 4f 55	r1 = 0x554f40a2ca8d342c ll
     412:	7b 1a 98 fc 00 00 00 00	*(u64 *)(r10 - 0x368) = r1
     413:	18 01 00 00 8e 90 ec 35 00 00 00 00 ca e3 39 da	r1 = -0x25c61c35ca136f72 ll
     415:	7b 1a a0 fc 00 00 00 00	*(u64 *)(r10 - 0x360) = r1
     416:	18 01 00 00 c6 55 04 2d 00 00 00 00 64 03 57 af	r1 = -0x50a8fc9bd2fbaa3a ll
     418:	7b 1a a8 fc 00 00 00 00	*(u64 *)(r10 - 0x358) = r1
     419:	bf a1 00 00 00 00 00 00	r1 = r10
     420:	07 01 00 00 40 fc ff ff	r1 += -0x3c0
     421:	bf a4 00 00 00 00 00 00	r4 = r10
     422:	07 04 00 00 70 fc ff ff	r4 += -0x390
     423:	85 10 00 00 91 ac 00 00	call 0xac91
     424:	79 a1 40 fc 00 00 00 00	r1 = *(u64 *)(r10 - 0x3c0)
     425:	79 a2 48 fc 00 00 00 00	r2 = *(u64 *)(r10 - 0x3b8)
     426:	05 00 42 00 00 00 00 00	goto +0x42 <.text+0xe48>
     427:	79 81 08 00 00 00 00 00	r1 = *(u64 *)(r8 + 0x8)
     428:	18 02 00 00 2c 34 8d ca 00 00 00 00 a2 40 4f 55	r2 = 0x554f40a2ca8d342c ll
     430:	5d 21 d8 ff 00 00 00 00	if r1 != r2 goto -0x28 <.text+0xb18>
     431:	79 81 10 00 00 00 00 00	r1 = *(u64 *)(r8 + 0x10)
     432:	18 02 00 00 8e 90 ec 35 00 00 00 00 ca e3 39 da	r2 = -0x25c61c35ca136f72 ll
     434:	5d 21 d4 ff 00 00 00 00	if r1 != r2 goto -0x2c <.text+0xb18>
     435:	b7 01 00 00 00 00 00 00	r1 = 0x0
     436:	79 82 18 00 00 00 00 00	r2 = *(u64 *)(r8 + 0x18)
     437:	18 03 00 00 c6 55 04 2d 00 00 00 00 64 03 57 af	r3 = -0x50a8fc9bd2fbaa3a ll
     439:	5d 32 cf ff 00 00 00 00	if r2 != r3 goto -0x31 <.text+0xb18>
     440:	15 01 01 00 00 00 00 00	if r1 == 0x0 goto +0x1 <.text+0xcb0>
     441:	05 00 cf ff 00 00 00 00	goto -0x31 <.text+0xb28>
     442:	bf a1 00 00 00 00 00 00	r1 = r10
     443:	07 01 00 00 70 fc ff ff	r1 += -0x390
     444:	bf 72 00 00 00 00 00 00	r2 = r7
     445:	85 10 00 00 55 b7 00 00	call 0xb755
     446:	61 a1 70 fc 00 00 00 00	w1 = *(u32 *)(r10 - 0x390)
     447:	15 01 01 00 18 00 00 00	if r1 == 0x18 goto +0x1 <.text+0xce8>
     448:	05 00 15 00 00 00 00 00	goto +0x15 <.text+0xd90>
     449:	79 a8 80 fc 00 00 00 00	r8 = *(u64 *)(r10 - 0x380)
     450:	79 a1 78 fc 00 00 00 00	r1 = *(u64 *)(r10 - 0x388)
     451:	79 12 00 00 00 00 00 00	r2 = *(u64 *)(r1 + 0x0)
     452:	79 11 08 00 00 00 00 00	r1 = *(u64 *)(r1 + 0x8)
     453:	7b 1a 68 fc 00 00 00 00	*(u64 *)(r10 - 0x398) = r1
     454:	7b 2a 60 fc 00 00 00 00	*(u64 *)(r10 - 0x3a0) = r2
     455:	bf a1 00 00 00 00 00 00	r1 = r10
     456:	07 01 00 00 70 fc ff ff	r1 += -0x390
     457:	bf a2 00 00 00 00 00 00	r2 = r10
     458:	07 02 00 00 60 fc ff ff	r2 += -0x3a0
     459:	85 10 00 00 2a 7b 00 00	call 0x7b2a
     460:	79 a3 70 fc 00 00 00 00	r3 = *(u64 *)(r10 - 0x390)
     461:	71 a9 fd ff 00 00 00 00	w9 = *(u8 *)(r10 - 0x3)
     462:	15 09 01 00 02 00 00 00	if r9 == 0x2 goto +0x1 <.text+0xd60>
     463:	05 00 22 00 00 00 00 00	goto +0x22 <.text+0xe70>
     464:	79 a1 78 fc 00 00 00 00	r1 = *(u64 *)(r10 - 0x388)
     465:	b7 02 00 00 02 00 00 00	r2 = 0x2
     466:	73 26 95 03 00 00 00 00	*(u8 *)(r6 + 0x395) = w2
     467:	7b 16 08 00 00 00 00 00	*(u64 *)(r6 + 0x8) = r1
     468:	7b 36 00 00 00 00 00 00	*(u64 *)(r6 + 0x0) = r3
     469:	05 00 2d 00 00 00 00 00	goto +0x2d <.text+0xef8>
     470:	61 a2 74 fc 00 00 00 00	w2 = *(u32 *)(r10 - 0x38c)
     471:	79 a3 78 fc 00 00 00 00	r3 = *(u64 *)(r10 - 0x388)
     472:	79 a4 80 fc 00 00 00 00	r4 = *(u64 *)(r10 - 0x380)
     473:	79 a5 88 fc 00 00 00 00	r5 = *(u64 *)(r10 - 0x378)
     474:	7b 5a 88 fc 00 00 00 00	*(u64 *)(r10 - 0x378) = r5
     475:	7b 4a 80 fc 00 00 00 00	*(u64 *)(r10 - 0x380) = r4
     476:	7b 3a 78 fc 00 00 00 00	*(u64 *)(r10 - 0x388) = r3
     477:	63 2a 74 fc 00 00 00 00	*(u32 *)(r10 - 0x38c) = w2
     478:	63 1a 70 fc 00 00 00 00	*(u32 *)(r10 - 0x390) = w1
     479:	bf a1 00 00 00 00 00 00	r1 = r10
     480:	07 01 00 00 30 fc ff ff	r1 += -0x3d0
     481:	bf a2 00 00 00 00 00 00	r2 = r10
     482:	07 02 00 00 70 fc ff ff	r2 += -0x390
     483:	85 10 00 00 34 ac 00 00	call 0xac34
     484:	79 a1 30 fc 00 00 00 00	r1 = *(u64 *)(r10 - 0x3d0)
     485:	79 a2 38 fc 00 00 00 00	r2 = *(u64 *)(r10 - 0x3c8)
     486:	05 00 06 00 00 00 00 00	goto +0x6 <.text+0xe48>
     487:	bf a1 00 00 00 00 00 00	r1 = r10
     488:	07 01 00 00 20 fc ff ff	r1 += -0x3e0
     489:	b7 02 00 00 c4 0b 00 00	r2 = 0xbc4
     490:	85 10 00 00 8c b2 00 00	call 0xb28c
     491:	79 a1 20 fc 00 00 00 00	r1 = *(u64 *)(r10 - 0x3e0)
     492:	79 a2 28 fc 00 00 00 00	r2 = *(u64 *)(r10 - 0x3d8)
     493:	b7 03 00 00 02 00 00 00	r3 = 0x2
     494:	73 36 95 03 00 00 00 00	*(u8 *)(r6 + 0x395) = w3
     495:	7b 26 08 00 00 00 00 00	*(u64 *)(r6 + 0x8) = r2
     496:	7b 16 00 00 00 00 00 00	*(u64 *)(r6 + 0x0) = r1
     497:	95 00 00 00 00 00 00 00	exit
     498:	79 a1 78 fc 00 00 00 00	r1 = *(u64 *)(r10 - 0x388)
     499:	7b 1a 18 fc 00 00 00 00	*(u64 *)(r10 - 0x3e8) = r1
     500:	bf 61 00 00 00 00 00 00	r1 = r6
     501:	07 01 00 00 18 00 00 00	r1 += 0x18
     502:	bf a2 00 00 00 00 00 00	r2 = r10
     503:	07 02 00 00 80 fc ff ff	r2 += -0x380
     504:	7b 3a 10 fc 00 00 00 00	*(u64 *)(r10 - 0x3f0) = r3
     505:	b7 03 00 00 7d 03 00 00	r3 = 0x37d
     506:	85 10 00 00 c5 d5 00 00	call 0xd5c5
     507:	69 a1 fe ff 00 00 00 00	w1 = *(u16 *)(r10 - 0x2)
     508:	6b 16 96 03 00 00 00 00	*(u16 *)(r6 + 0x396) = w1
     509:	73 96 95 03 00 00 00 00	*(u8 *)(r6 + 0x395) = w9
     510:	79 a1 18 fc 00 00 00 00	r1 = *(u64 *)(r10 - 0x3e8)
     511:	7b 16 10 00 00 00 00 00	*(u64 *)(r6 + 0x10) = r1
     512:	79 a1 10 fc 00 00 00 00	r1 = *(u64 *)(r10 - 0x3f0)
     513:	7b 16 08 00 00 00 00 00	*(u64 *)(r6 + 0x8) = r1
     514:	7b 76 00 00 00 00 00 00	*(u64 *)(r6 + 0x0) = r7
     515:	79 81 00 00 00 00 00 00	r1 = *(u64 *)(r8 + 0x0)
     516:	07 01 00 00 ff ff ff ff	r1 += -0x1
     517:	7b 18 00 00 00 00 00 00	*(u64 *)(r8 + 0x0) = r1
     518:	05 00 ea ff 00 00 00 00	goto -0x16 <.text+0xe68>
     519:	bf 27 00 00 00 00 00 00	r7 = r2
     520:	bf 16 00 00 00 00 00 00	r6 = r1
     521:	79 78 18 00 00 00 00 00	r8 = *(u64 *)(r7 + 0x18)
     522:	79 81 00 00 00 00 00 00	r1 = *(u64 *)(r8 + 0x0)
     523:	15 01 02 00 00 00 00 00	if r1 == 0x0 goto +0x2 <.text+0xf50>
     524:	b7 01 00 00 01 00 00 00	r1 = 0x1
     525:	05 00 07 00 00 00 00 00	goto +0x7 <.text+0xf88>
     526:	79 81 08 00 00 00 00 00	r1 = *(u64 *)(r8 + 0x8)
     527:	55 01 fc ff 00 00 00 00	if r1 != 0x0 goto -0x4 <.text+0xf40>
     528:	79 81 10 00 00 00 00 00	r1 = *(u64 *)(r8 + 0x10)
     529:	55 01 fa ff 00 00 00 00	if r1 != 0x0 goto -0x6 <.text+0xf40>
     530:	b7 01 00 00 00 00 00 00	r1 = 0x0
     531:	79 82 18 00 00 00 00 00	r2 = *(u64 *)(r8 + 0x18)
     532:	55 02 f7 ff 00 00 00 00	if r2 != 0x0 goto -0x9 <.text+0xf40>
     533:	55 01 03 00 00 00 00 00	if r1 != 0x0 goto +0x3 <.text+0xfa8>
     534:	bf 71 00 00 00 00 00 00	r1 = r7
     535:	85 10 00 00 c4 b6 00 00	call 0xb6c4
     536:	15 00 63 00 00 00 00 00	if r0 == 0x0 goto +0x63 <.text+0x12c0>
     537:	79 81 00 00 00 00 00 00	r1 = *(u64 *)(r8 + 0x0)
     538:	18 02 00 00 1c ce 98 98 00 00 00 00 35 6d eb 3f	r2 = 0x3feb6d359898ce1c ll
     540:	1d 21 24 00 00 00 00 00	if r1 == r2 goto +0x24 <.text+0x10e8>
     541:	b7 01 00 00 01 00 00 00	r1 = 0x1
     542:	15 01 31 00 00 00 00 00	if r1 == 0x0 goto +0x31 <.text+0x1160>
     543:	bf a1 00 00 00 00 00 00	r1 = r10
     544:	07 01 00 00 90 ff ff ff	r1 += -0x70
     545:	b7 02 00 00 bf 0b 00 00	r2 = 0xbbf
     546:	85 10 00 00 54 b2 00 00	call 0xb254
     547:	79 a3 98 ff 00 00 00 00	r3 = *(u64 *)(r10 - 0x68)
     548:	79 a2 90 ff 00 00 00 00	r2 = *(u64 *)(r10 - 0x70)
     549:	79 81 18 00 00 00 00 00	r1 = *(u64 *)(r8 + 0x18)
     550:	7b 1a b8 ff 00 00 00 00	*(u64 *)(r10 - 0x48) = r1
     551:	79 81 10 00 00 00 00 00	r1 = *(u64 *)(r8 + 0x10)
     552:	7b 1a b0 ff 00 00 00 00	*(u64 *)(r10 - 0x50) = r1
     553:	79 81 08 00 00 00 00 00	r1 = *(u64 *)(r8 + 0x8)
     554:	7b 1a a8 ff 00 00 00 00	*(u64 *)(r10 - 0x58) = r1
     555:	79 81 00 00 00 00 00 00	r1 = *(u64 *)(r8 + 0x0)
     556:	7b 1a a0 ff 00 00 00 00	*(u64 *)(r10 - 0x60) = r1
     557:	18 01 00 00 1c ce 98 98 00 00 00 00 35 6d eb 3f	r1 = 0x3feb6d359898ce1c ll
     559:	7b 1a c0 ff 00 00 00 00	*(u64 *)(r10 - 0x40) = r1
     560:	18 01 00 00 2c 34 8d ca 00 00 00 00 a2 40 4f 55	r1 = 0x554f40a2ca8d342c ll
     562:	7b 1a c8 ff 00 00 00 00	*(u64 *)(r10 - 0x38) = r1
     563:	18 01 00 00 8e 90 ec 35 00 00 00 00 ca e3 39 da	r1 = -0x25c61c35ca136f72 ll
     565:	7b 1a d0 ff 00 00 00 00	*(u64 *)(r10 - 0x30) = r1
     566:	18 01 00 00 c6 55 04 2d 00 00 00 00 64 03 57 af	r1 = -0x50a8fc9bd2fbaa3a ll
     568:	7b 1a d8 ff 00 00 00 00	*(u64 *)(r10 - 0x28) = r1
     569:	bf a1 00 00 00 00 00 00	r1 = r10
     570:	07 01 00 00 80 ff ff ff	r1 += -0x80
     571:	bf a4 00 00 00 00 00 00	r4 = r10
     572:	07 04 00 00 a0 ff ff ff	r4 += -0x60
     573:	85 10 00 00 fb ab 00 00	call 0xabfb
     574:	79 a1 80 ff 00 00 00 00	r1 = *(u64 *)(r10 - 0x80)
     575:	79 a2 88 ff 00 00 00 00	r2 = *(u64 *)(r10 - 0x78)
     576:	05 00 41 00 00 00 00 00	goto +0x41 <.text+0x12f0>
     577:	79 81 08 00 00 00 00 00	r1 = *(u64 *)(r8 + 0x8)
     578:	18 02 00 00 2c 34 8d ca 00 00 00 00 a2 40 4f 55	r2 = 0x554f40a2ca8d342c ll
     580:	5d 21 d8 ff 00 00 00 00	if r1 != r2 goto -0x28 <.text+0xfc8>
     581:	79 81 10 00 00 00 00 00	r1 = *(u64 *)(r8 + 0x10)
     582:	18 02 00 00 8e 90 ec 35 00 00 00 00 ca e3 39 da	r2 = -0x25c61c35ca136f72 ll
     584:	5d 21 d4 ff 00 00 00 00	if r1 != r2 goto -0x2c <.text+0xfc8>
     585:	b7 01 00 00 00 00 00 00	r1 = 0x0
     586:	79 82 18 00 00 00 00 00	r2 = *(u64 *)(r8 + 0x18)
     587:	18 03 00 00 c6 55 04 2d 00 00 00 00 64 03 57 af	r3 = -0x50a8fc9bd2fbaa3a ll
     589:	5d 32 cf ff 00 00 00 00	if r2 != r3 goto -0x31 <.text+0xfc8>
     590:	15 01 01 00 00 00 00 00	if r1 == 0x0 goto +0x1 <.text+0x1160>
     591:	05 00 cf ff 00 00 00 00	goto -0x31 <.text+0xfd8>
     592:	bf a1 00 00 00 00 00 00	r1 = r10
     593:	07 01 00 00 a0 ff ff ff	r1 += -0x60
     594:	bf 72 00 00 00 00 00 00	r2 = r7
     595:	85 10 00 00 bf b6 00 00	call 0xb6bf
     596:	61 a1 a0 ff 00 00 00 00	w1 = *(u32 *)(r10 - 0x60)
     597:	15 01 01 00 18 00 00 00	if r1 == 0x18 goto +0x1 <.text+0x1198>
     598:	05 00 14 00 00 00 00 00	goto +0x14 <.text+0x1238>
     599:	79 a8 b0 ff 00 00 00 00	r8 = *(u64 *)(r10 - 0x50)
     600:	79 a1 a8 ff 00 00 00 00	r1 = *(u64 *)(r10 - 0x58)
     601:	79 12 00 00 00 00 00 00	r2 = *(u64 *)(r1 + 0x0)
     602:	79 11 08 00 00 00 00 00	r1 = *(u64 *)(r1 + 0x8)
     603:	7b 1a e8 ff 00 00 00 00	*(u64 *)(r10 - 0x18) = r1
     604:	7b 2a e0 ff 00 00 00 00	*(u64 *)(r10 - 0x20) = r2
     605:	bf a1 00 00 00 00 00 00	r1 = r10
     606:	07 01 00 00 a0 ff ff ff	r1 += -0x60
     607:	bf a2 00 00 00 00 00 00	r2 = r10
     608:	07 02 00 00 e0 ff ff ff	r2 += -0x20
     609:	85 10 00 00 80 90 00 00	call 0x9080
     610:	61 a1 a0 ff 00 00 00 00	w1 = *(u32 *)(r10 - 0x60)
     611:	15 01 23 00 00 00 00 00	if r1 == 0x0 goto +0x23 <.text+0x1318>
     612:	79 a1 a8 ff 00 00 00 00	r1 = *(u64 *)(r10 - 0x58)
     613:	79 a2 b0 ff 00 00 00 00	r2 = *(u64 *)(r10 - 0x50)
     614:	7b 26 10 00 00 00 00 00	*(u64 *)(r6 + 0x10) = r2
     615:	7b 16 08 00 00 00 00 00	*(u64 *)(r6 + 0x8) = r1
     616:	b7 01 00 00 00 00 00 00	r1 = 0x0
     617:	7b 16 00 00 00 00 00 00	*(u64 *)(r6 + 0x0) = r1
     618:	05 00 2b 00 00 00 00 00	goto +0x2b <.text+0x1390>
     619:	61 a2 a4 ff 00 00 00 00	w2 = *(u32 *)(r10 - 0x5c)
     620:	79 a3 a8 ff 00 00 00 00	r3 = *(u64 *)(r10 - 0x58)
     621:	79 a4 b0 ff 00 00 00 00	r4 = *(u64 *)(r10 - 0x50)
     622:	79 a5 b8 ff 00 00 00 00	r5 = *(u64 *)(r10 - 0x48)
     623:	7b 5a b8 ff 00 00 00 00	*(u64 *)(r10 - 0x48) = r5
     624:	7b 4a b0 ff 00 00 00 00	*(u64 *)(r10 - 0x50) = r4
     625:	7b 3a a8 ff 00 00 00 00	*(u64 *)(r10 - 0x58) = r3
     626:	63 2a a4 ff 00 00 00 00	*(u32 *)(r10 - 0x5c) = w2
     627:	63 1a a0 ff 00 00 00 00	*(u32 *)(r10 - 0x60) = w1
     628:	bf a1 00 00 00 00 00 00	r1 = r10
     629:	07 01 00 00 70 ff ff ff	r1 += -0x90
     630:	bf a2 00 00 00 00 00 00	r2 = r10
     631:	07 02 00 00 a0 ff ff ff	r2 += -0x60
     632:	85 10 00 00 9f ab 00 00	call 0xab9f
     633:	79 a1 70 ff 00 00 00 00	r1 = *(u64 *)(r10 - 0x90)
     634:	79 a2 78 ff 00 00 00 00	r2 = *(u64 *)(r10 - 0x88)
     635:	05 00 06 00 00 00 00 00	goto +0x6 <.text+0x12f0>
     636:	bf a1 00 00 00 00 00 00	r1 = r10
     637:	07 01 00 00 60 ff ff ff	r1 += -0xa0
     638:	b7 02 00 00 c4 0b 00 00	r2 = 0xbc4
     639:	85 10 00 00 f7 b1 00 00	call 0xb1f7
     640:	79 a1 60 ff 00 00 00 00	r1 = *(u64 *)(r10 - 0xa0)
     641:	79 a2 68 ff 00 00 00 00	r2 = *(u64 *)(r10 - 0x98)
     642:	7b 26 10 00 00 00 00 00	*(u64 *)(r6 + 0x10) = r2
     643:	7b 16 08 00 00 00 00 00	*(u64 *)(r6 + 0x8) = r1
     644:	b7 01 00 00 00 00 00 00	r1 = 0x0
     645:	7b 16 00 00 00 00 00 00	*(u64 *)(r6 + 0x0) = r1
     646:	95 00 00 00 00 00 00 00	exit
     647:	79 a1 b8 ff 00 00 00 00	r1 = *(u64 *)(r10 - 0x48)
     648:	7b 1a f0 ff 00 00 00 00	*(u64 *)(r10 - 0x10) = r1
     649:	79 a1 c0 ff 00 00 00 00	r1 = *(u64 *)(r10 - 0x40)
     650:	7b 1a f8 ff 00 00 00 00	*(u64 *)(r10 - 0x8) = r1
     651:	61 a1 a4 ff 00 00 00 00	w1 = *(u32 *)(r10 - 0x5c)
     652:	79 a2 a8 ff 00 00 00 00	r2 = *(u64 *)(r10 - 0x58)
     653:	79 a3 b0 ff 00 00 00 00	r3 = *(u64 *)(r10 - 0x50)
     654:	7b 36 14 00 00 00 00 00	*(u64 *)(r6 + 0x14) = r3
     655:	7b 26 0c 00 00 00 00 00	*(u64 *)(r6 + 0xc) = r2
     656:	63 16 08 00 00 00 00 00	*(u32 *)(r6 + 0x8) = w1
     657:	7b 76 00 00 00 00 00 00	*(u64 *)(r6 + 0x0) = r7
     658:	79 a1 f0 ff 00 00 00 00	r1 = *(u64 *)(r10 - 0x10)
     659:	7b 16 1c 00 00 00 00 00	*(u64 *)(r6 + 0x1c) = r1
     660:	79 a1 f8 ff 00 00 00 00	r1 = *(u64 *)(r10 - 0x8)
     661:	7b 16 24 00 00 00 00 00	*(u64 *)(r6 + 0x24) = r1
     662:	79 81 00 00 00 00 00 00	r1 = *(u64 *)(r8 + 0x0)
     663:	07 01 00 00 ff ff ff ff	r1 += -0x1
     664:	7b 18 00 00 00 00 00 00	*(u64 *)(r8 + 0x0) = r1
     665:	05 00 ec ff 00 00 00 00	goto -0x14 <.text+0x1310>
     666:	bf 27 00 00 00 00 00 00	r7 = r2
     667:	bf 16 00 00 00 00 00 00	r6 = r1
     668:	79 41 00 00 00 00 00 00	r1 = *(u64 *)(r4 + 0x0)
     669:	79 32 00 00 00 00 00 00	r2 = *(u64 *)(r3 + 0x0)
     670:	1d 12 02 00 00 00 00 00	if r2 == r1 goto +0x2 <.text+0x13e8>
     671:	b7 02 00 00 01 00 00 00	r2 = 0x1
     672:	05 00 0a 00 00 00 00 00	goto +0xa <.text+0x1438>
     673:	79 41 08 00 00 00 00 00	r1 = *(u64 *)(r4 + 0x8)
     674:	79 32 08 00 00 00 00 00	r2 = *(u64 *)(r3 + 0x8)
     675:	5d 12 fb ff 00 00 00 00	if r2 != r1 goto -0x5 <.text+0x13d8>
     676:	79 41 10 00 00 00 00 00	r1 = *(u64 *)(r4 + 0x10)
     677:	79 32 10 00 00 00 00 00	r2 = *(u64 *)(r3 + 0x10)
     678:	5d 12 f8 ff 00 00 00 00	if r2 != r1 goto -0x8 <.text+0x13d8>
     679:	b7 02 00 00 00 00 00 00	r2 = 0x0
     680:	79 41 18 00 00 00 00 00	r1 = *(u64 *)(r4 + 0x18)
     681:	79 33 18 00 00 00 00 00	r3 = *(u64 *)(r3 + 0x18)
     682:	5d 13 f4 ff 00 00 00 00	if r3 != r1 goto -0xc <.text+0x13d8>
     683:	b7 08 00 00 02 00 00 00	r8 = 0x2
     684:	55 02 60 00 00 00 00 00	if r2 != 0x0 goto +0x60 <.text+0x1748>
     685:	bf 71 00 00 00 00 00 00	r1 = r7
     686:	85 10 00 00 46 ab 00 00	call 0xab46
     687:	55 00 5d 00 00 00 00 00	if r0 != 0x0 goto +0x5d <.text+0x1748>
     688:	79 71 08 00 00 00 00 00	r1 = *(u64 *)(r7 + 0x8)
     689:	79 13 00 00 00 00 00 00	r3 = *(u64 *)(r1 + 0x0)
     690:	07 03 00 00 01 00 00 00	r3 += 0x1
     691:	b7 04 00 00 01 00 00 00	r4 = 0x1
     692:	15 03 01 00 00 00 00 00	if r3 == 0x0 goto +0x1 <.text+0x1490>
     693:	b7 04 00 00 00 00 00 00	r4 = 0x0
     694:	79 72 00 00 00 00 00 00	r2 = *(u64 *)(r7 + 0x0)
     695:	7b 31 00 00 00 00 00 00	*(u64 *)(r1 + 0x0) = r3
     696:	55 04 02 00 01 00 00 00	if r4 != 0x1 goto +0x2 <.text+0x14b8>
     697:	85 10 00 00 ff ff ff ff	call -0x1
     698:	85 10 00 00 ff ff ff ff	call -0x1
     699:	79 73 10 00 00 00 00 00	r3 = *(u64 *)(r7 + 0x10)
     700:	79 34 00 00 00 00 00 00	r4 = *(u64 *)(r3 + 0x0)
     701:	07 04 00 00 01 00 00 00	r4 += 0x1
     702:	b7 05 00 00 01 00 00 00	r5 = 0x1
     703:	15 04 01 00 00 00 00 00	if r4 == 0x0 goto +0x1 <.text+0x14e8>
     704:	b7 05 00 00 00 00 00 00	r5 = 0x0
     705:	7b 43 00 00 00 00 00 00	*(u64 *)(r3 + 0x0) = r4
     706:	55 05 01 00 01 00 00 00	if r5 != 0x1 goto +0x1 <.text+0x1500>
     707:	05 00 f5 ff 00 00 00 00	goto -0xb <.text+0x14a8>
     708:	79 74 18 00 00 00 00 00	r4 = *(u64 *)(r7 + 0x18)
     709:	79 75 20 00 00 00 00 00	r5 = *(u64 *)(r7 + 0x20)
     710:	71 70 28 00 00 00 00 00	w0 = *(u8 *)(r7 + 0x28)
     711:	71 79 29 00 00 00 00 00	w9 = *(u8 *)(r7 + 0x29)
     712:	71 77 2a 00 00 00 00 00	w7 = *(u8 *)(r7 + 0x2a)
     713:	73 7a da ff 00 00 00 00	*(u8 *)(r10 - 0x26) = w7
     714:	73 9a d9 ff 00 00 00 00	*(u8 *)(r10 - 0x27) = w9
     715:	73 0a d8 ff 00 00 00 00	*(u8 *)(r10 - 0x28) = w0
     716:	7b 5a d0 ff 00 00 00 00	*(u64 *)(r10 - 0x30) = r5
     717:	7b 4a c8 ff 00 00 00 00	*(u64 *)(r10 - 0x38) = r4
     718:	7b 3a c0 ff 00 00 00 00	*(u64 *)(r10 - 0x40) = r3
     719:	7b 1a b8 ff 00 00 00 00	*(u64 *)(r10 - 0x48) = r1
     720:	7b 2a b0 ff 00 00 00 00	*(u64 *)(r10 - 0x50) = r2
     721:	bf a1 00 00 00 00 00 00	r1 = r10
     722:	07 01 00 00 e0 ff ff ff	r1 += -0x20
     723:	bf a2 00 00 00 00 00 00	r2 = r10
     724:	07 02 00 00 b0 ff ff ff	r2 += -0x50
     725:	85 10 00 00 4d b6 00 00	call 0xb64d
     726:	61 a1 e0 ff 00 00 00 00	w1 = *(u32 *)(r10 - 0x20)
     727:	55 01 15 00 18 00 00 00	if r1 != 0x18 goto +0x15 <.text+0x1648>
     728:	79 a1 f0 ff 00 00 00 00	r1 = *(u64 *)(r10 - 0x10)
     729:	79 12 00 00 00 00 00 00	r2 = *(u64 *)(r1 + 0x0)
     730:	07 02 00 00 01 00 00 00	r2 += 0x1
     731:	7b 21 00 00 00 00 00 00	*(u64 *)(r1 + 0x0) = r2
     732:	79 a1 c0 ff 00 00 00 00	r1 = *(u64 *)(r10 - 0x40)
     733:	79 a2 b8 ff 00 00 00 00	r2 = *(u64 *)(r10 - 0x48)
     734:	79 23 00 00 00 00 00 00	r3 = *(u64 *)(r2 + 0x0)
     735:	07 03 00 00 ff ff ff ff	r3 += -0x1
     736:	7b 32 00 00 00 00 00 00	*(u64 *)(r2 + 0x0) = r3
     737:	55 03 03 00 00 00 00 00	if r3 != 0x0 goto +0x3 <.text+0x1608>
     738:	79 23 08 00 00 00 00 00	r3 = *(u64 *)(r2 + 0x8)
     739:	07 03 00 00 ff ff ff ff	r3 += -0x1
     740:	7b 32 08 00 00 00 00 00	*(u64 *)(r2 + 0x8) = r3
     741:	79 12 00 00 00 00 00 00	r2 = *(u64 *)(r1 + 0x0)
     742:	07 02 00 00 ff ff ff ff	r2 += -0x1
     743:	7b 21 00 00 00 00 00 00	*(u64 *)(r1 + 0x0) = r2
     744:	55 02 03 00 00 00 00 00	if r2 != 0x0 goto +0x3 <.text+0x1640>
     745:	79 12 08 00 00 00 00 00	r2 = *(u64 *)(r1 + 0x8)
     746:	07 02 00 00 ff ff ff ff	r2 += -0x1
     747:	7b 21 08 00 00 00 00 00	*(u64 *)(r1 + 0x8) = r2
     748:	05 00 20 00 00 00 00 00	goto +0x20 <.text+0x1748>
     749:	61 a2 e4 ff 00 00 00 00	w2 = *(u32 *)(r10 - 0x1c)
     750:	79 a3 e8 ff 00 00 00 00	r3 = *(u64 *)(r10 - 0x18)
     751:	79 a4 f0 ff 00 00 00 00	r4 = *(u64 *)(r10 - 0x10)
     752:	79 a5 f8 ff 00 00 00 00	r5 = *(u64 *)(r10 - 0x8)
     753:	7b 5a f8 ff 00 00 00 00	*(u64 *)(r10 - 0x8) = r5
     754:	7b 4a f0 ff 00 00 00 00	*(u64 *)(r10 - 0x10) = r4
     755:	7b 3a e8 ff 00 00 00 00	*(u64 *)(r10 - 0x18) = r3
     756:	63 2a e4 ff 00 00 00 00	*(u32 *)(r10 - 0x1c) = w2
     757:	63 1a e0 ff 00 00 00 00	*(u32 *)(r10 - 0x20) = w1
     758:	bf a1 00 00 00 00 00 00	r1 = r10
     759:	07 01 00 00 a0 ff ff ff	r1 += -0x60
     760:	bf a2 00 00 00 00 00 00	r2 = r10
     761:	07 02 00 00 e0 ff ff ff	r2 += -0x20
     762:	85 10 00 00 1d ab 00 00	call 0xab1d
     763:	79 a2 c0 ff 00 00 00 00	r2 = *(u64 *)(r10 - 0x40)
     764:	79 a1 a8 ff 00 00 00 00	r1 = *(u64 *)(r10 - 0x58)
     765:	79 a8 a0 ff 00 00 00 00	r8 = *(u64 *)(r10 - 0x60)
     766:	79 a3 b8 ff 00 00 00 00	r3 = *(u64 *)(r10 - 0x48)
     767:	79 34 00 00 00 00 00 00	r4 = *(u64 *)(r3 + 0x0)
     768:	07 04 00 00 ff ff ff ff	r4 += -0x1
     769:	7b 43 00 00 00 00 00 00	*(u64 *)(r3 + 0x0) = r4
     770:	55 04 03 00 00 00 00 00	if r4 != 0x0 goto +0x3 <.text+0x1710>
     771:	79 34 08 00 00 00 00 00	r4 = *(u64 *)(r3 + 0x8)
     772:	07 04 00 00 ff ff ff ff	r4 += -0x1
     773:	7b 43 08 00 00 00 00 00	*(u64 *)(r3 + 0x8) = r4
     774:	79 23 00 00 00 00 00 00	r3 = *(u64 *)(r2 + 0x0)
     775:	07 03 00 00 ff ff ff ff	r3 += -0x1
     776:	7b 32 00 00 00 00 00 00	*(u64 *)(r2 + 0x0) = r3
     777:	55 03 03 00 00 00 00 00	if r3 != 0x0 goto +0x3 <.text+0x1748>
     778:	79 23 08 00 00 00 00 00	r3 = *(u64 *)(r2 + 0x8)
     779:	07 03 00 00 ff ff ff ff	r3 += -0x1
     780:	7b 32 08 00 00 00 00 00	*(u64 *)(r2 + 0x8) = r3
     781:	7b 16 08 00 00 00 00 00	*(u64 *)(r6 + 0x8) = r1
     782:	7b 86 00 00 00 00 00 00	*(u64 *)(r6 + 0x0) = r8
     783:	95 00 00 00 00 00 00 00	exit
     784:	bf 27 00 00 00 00 00 00	r7 = r2
     785:	bf 16 00 00 00 00 00 00	r6 = r1
     786:	79 41 00 00 00 00 00 00	r1 = *(u64 *)(r4 + 0x0)
     787:	79 32 00 00 00 00 00 00	r2 = *(u64 *)(r3 + 0x0)
     788:	1d 12 02 00 00 00 00 00	if r2 == r1 goto +0x2 <.text+0x1798>
     789:	b7 02 00 00 01 00 00 00	r2 = 0x1
     790:	05 00 0a 00 00 00 00 00	goto +0xa <.text+0x17e8>
     791:	79 41 08 00 00 00 00 00	r1 = *(u64 *)(r4 + 0x8)
     792:	79 32 08 00 00 00 00 00	r2 = *(u64 *)(r3 + 0x8)
     793:	5d 12 fb ff 00 00 00 00	if r2 != r1 goto -0x5 <.text+0x1788>
     794:	79 41 10 00 00 00 00 00	r1 = *(u64 *)(r4 + 0x10)
     795:	79 32 10 00 00 00 00 00	r2 = *(u64 *)(r3 + 0x10)
     796:	5d 12 f8 ff 00 00 00 00	if r2 != r1 goto -0x8 <.text+0x1788>
     797:	b7 02 00 00 00 00 00 00	r2 = 0x0
     798:	79 41 18 00 00 00 00 00	r1 = *(u64 *)(r4 + 0x18)
     799:	79 33 18 00 00 00 00 00	r3 = *(u64 *)(r3 + 0x18)
     800:	5d 13 f4 ff 00 00 00 00	if r3 != r1 goto -0xc <.text+0x1788>
     801:	b7 09 00 00 02 00 00 00	r9 = 0x2
     802:	55 02 ad 02 00 00 00 00	if r2 != 0x0 goto +0x2ad <.text+0x2d60>
     803:	79 78 00 00 00 00 00 00	r8 = *(u64 *)(r7 + 0x0)
     804:	bf 81 00 00 00 00 00 00	r1 = r8
     805:	85 10 00 00 cf aa 00 00	call 0xaacf
     806:	55 00 a9 02 00 00 00 00	if r0 != 0x0 goto +0x2a9 <.text+0x2d60>
     807:	79 81 08 00 00 00 00 00	r1 = *(u64 *)(r8 + 0x8)
     808:	79 13 00 00 00 00 00 00	r3 = *(u64 *)(r1 + 0x0)
     809:	07 03 00 00 01 00 00 00	r3 += 0x1
     810:	b7 04 00 00 01 00 00 00	r4 = 0x1
     811:	15 03 01 00 00 00 00 00	if r3 == 0x0 goto +0x1 <.text+0x1848>
     812:	b7 04 00 00 00 00 00 00	r4 = 0x0
     813:	79 82 00 00 00 00 00 00	r2 = *(u64 *)(r8 + 0x0)
     814:	7b 31 00 00 00 00 00 00	*(u64 *)(r1 + 0x0) = r3
     815:	55 04 02 00 01 00 00 00	if r4 != 0x1 goto +0x2 <.text+0x1870>
     816:	85 10 00 00 ff ff ff ff	call -0x1
     817:	85 10 00 00 ff ff ff ff	call -0x1
     818:	79 83 10 00 00 00 00 00	r3 = *(u64 *)(r8 + 0x10)
     819:	79 34 00 00 00 00 00 00	r4 = *(u64 *)(r3 + 0x0)
     820:	07 04 00 00 01 00 00 00	r4 += 0x1
     821:	b7 05 00 00 01 00 00 00	r5 = 0x1
     822:	15 04 01 00 00 00 00 00	if r4 == 0x0 goto +0x1 <.text+0x18a0>
     823:	b7 05 00 00 00 00 00 00	r5 = 0x0
     824:	bf 79 00 00 00 00 00 00	r9 = r7
     825:	7b 43 00 00 00 00 00 00	*(u64 *)(r3 + 0x0) = r4
     826:	55 05 01 00 01 00 00 00	if r5 != 0x1 goto +0x1 <.text+0x18c0>
     827:	05 00 f4 ff 00 00 00 00	goto -0xc <.text+0x1860>
     828:	79 84 18 00 00 00 00 00	r4 = *(u64 *)(r8 + 0x18)
     829:	79 85 20 00 00 00 00 00	r5 = *(u64 *)(r8 + 0x20)
     830:	71 80 28 00 00 00 00 00	w0 = *(u8 *)(r8 + 0x28)
     831:	71 87 29 00 00 00 00 00	w7 = *(u8 *)(r8 + 0x29)
     832:	71 88 2a 00 00 00 00 00	w8 = *(u8 *)(r8 + 0x2a)
     833:	73 8a d2 ff 00 00 00 00	*(u8 *)(r10 - 0x2e) = w8
     834:	73 7a d1 ff 00 00 00 00	*(u8 *)(r10 - 0x2f) = w7
     835:	73 0a d0 ff 00 00 00 00	*(u8 *)(r10 - 0x30) = w0
     836:	7b 5a c8 ff 00 00 00 00	*(u64 *)(r10 - 0x38) = r5
     837:	7b 4a c0 ff 00 00 00 00	*(u64 *)(r10 - 0x40) = r4
     838:	7b 3a b8 ff 00 00 00 00	*(u64 *)(r10 - 0x48) = r3
     839:	7b 1a b0 ff 00 00 00 00	*(u64 *)(r10 - 0x50) = r1
     840:	7b 2a a8 ff 00 00 00 00	*(u64 *)(r10 - 0x58) = r2
     841:	bf a1 00 00 00 00 00 00	r1 = r10
     842:	07 01 00 00 d8 ff ff ff	r1 += -0x28
     843:	bf a2 00 00 00 00 00 00	r2 = r10
     844:	07 02 00 00 a8 ff ff ff	r2 += -0x58
     845:	85 10 00 00 d5 b5 00 00	call 0xb5d5
     846:	61 a1 d8 ff 00 00 00 00	w1 = *(u32 *)(r10 - 0x28)
     847:	55 01 18 00 18 00 00 00	if r1 != 0x18 goto +0x18 <.text+0x1a20>
     848:	79 a8 e8 ff 00 00 00 00	r8 = *(u64 *)(r10 - 0x18)
     849:	79 a1 e0 ff 00 00 00 00	r1 = *(u64 *)(r10 - 0x20)
     850:	79 12 00 00 00 00 00 00	r2 = *(u64 *)(r1 + 0x0)
     851:	79 11 08 00 00 00 00 00	r1 = *(u64 *)(r1 + 0x8)
     852:	b7 03 00 00 00 00 00 00	r3 = 0x0
     853:	7b 3a e8 ff 00 00 00 00	*(u64 *)(r10 - 0x18) = r3
     854:	7b 1a e0 ff 00 00 00 00	*(u64 *)(r10 - 0x20) = r1
     855:	7b 2a d8 ff 00 00 00 00	*(u64 *)(r10 - 0x28) = r2
     856:	bf a1 00 00 00 00 00 00	r1 = r10
     857:	07 01 00 00 d8 ff ff ff	r1 += -0x28
     858:	18 02 00 00 53 30 07 00 00 00 00 00 00 00 00 00	r2 = 0x73053 ll
     860:	b7 03 00 00 08 00 00 00	r3 = 0x8
     861:	85 10 00 00 e9 a9 00 00	call 0xa9e9
     862:	15 00 1a 00 00 00 00 00	if r0 == 0x0 goto +0x1a <.text+0x1aa8>
     863:	bf 01 00 00 00 00 00 00	r1 = r0
     864:	57 01 00 00 03 00 00 00	r1 &= 0x3
     865:	bf 12 00 00 00 00 00 00	r2 = r1
     866:	07 02 00 00 fe ff ff ff	r2 += -0x2
     867:	b7 03 00 00 02 00 00 00	r3 = 0x2
     868:	b7 09 00 00 02 00 00 00	r9 = 0x2
     869:	2d 23 3d 02 00 00 00 00	if r3 > r2 goto +0x23d <.text+0x2bf8>
     870:	15 01 3c 02 00 00 00 00	if r1 == 0x0 goto +0x23c <.text+0x2bf8>
     871:	05 00 37 02 00 00 00 00	goto +0x237 <.text+0x2bd8>
     872:	61 a2 dc ff 00 00 00 00	w2 = *(u32 *)(r10 - 0x24)
     873:	79 a3 e0 ff 00 00 00 00	r3 = *(u64 *)(r10 - 0x20)
     874:	79 a4 e8 ff 00 00 00 00	r4 = *(u64 *)(r10 - 0x18)
     875:	79 a5 f0 ff 00 00 00 00	r5 = *(u64 *)(r10 - 0x10)
     876:	7b 5a f0 ff 00 00 00 00	*(u64 *)(r10 - 0x10) = r5
     877:	7b 4a e8 ff 00 00 00 00	*(u64 *)(r10 - 0x18) = r4
     878:	7b 3a e0 ff 00 00 00 00	*(u64 *)(r10 - 0x20) = r3
     879:	63 2a dc ff 00 00 00 00	*(u32 *)(r10 - 0x24) = w2
     880:	63 1a d8 ff 00 00 00 00	*(u32 *)(r10 - 0x28) = w1
     881:	bf a1 00 00 00 00 00 00	r1 = r10
     882:	07 01 00 00 98 ff ff ff	r1 += -0x68
     883:	bf a2 00 00 00 00 00 00	r2 = r10
     884:	07 02 00 00 d8 ff ff ff	r2 += -0x28
     885:	85 10 00 00 a2 aa 00 00	call 0xaaa2
     886:	79 a1 a0 ff 00 00 00 00	r1 = *(u64 *)(r10 - 0x60)
     887:	79 a2 98 ff 00 00 00 00	r2 = *(u64 *)(r10 - 0x68)
     888:	05 00 46 02 00 00 00 00	goto +0x246 <.text+0x2cd8>
     889:	bf 92 00 00 00 00 00 00	r2 = r9
     890:	07 02 00 00 48 00 00 00	r2 += 0x48
     891:	bf a1 00 00 00 00 00 00	r1 = r10
     892:	07 01 00 00 d8 ff ff ff	r1 += -0x28
     893:	b7 03 00 00 20 00 00 00	r3 = 0x20
     894:	85 10 00 00 c8 a9 00 00	call 0xa9c8
     895:	55 00 17 02 00 00 00 00	if r0 != 0x0 goto +0x217 <.text+0x2b98>
     896:	bf 92 00 00 00 00 00 00	r2 = r9
     897:	07 02 00 00 68 00 00 00	r2 += 0x68
     898:	bf a1 00 00 00 00 00 00	r1 = r10
     899:	07 01 00 00 d8 ff ff ff	r1 += -0x28
     900:	b7 03 00 00 20 00 00 00	r3 = 0x20
     901:	85 10 00 00 c1 a9 00 00	call 0xa9c1
     902:	55 00 10 02 00 00 00 00	if r0 != 0x0 goto +0x210 <.text+0x2b98>
     903:	bf 92 00 00 00 00 00 00	r2 = r9
     904:	07 02 00 00 88 00 00 00	r2 += 0x88
     905:	bf a1 00 00 00 00 00 00	r1 = r10
     906:	07 01 00 00 d8 ff ff ff	r1 += -0x28
     907:	b7 03 00 00 20 00 00 00	r3 = 0x20
     908:	85 10 00 00 ba a9 00 00	call 0xa9ba
     909:	55 00 09 02 00 00 00 00	if r0 != 0x0 goto +0x209 <.text+0x2b98>
     910:	79 91 98 02 00 00 00 00	r1 = *(u64 *)(r9 + 0x298)
     911:	7b 1a f8 ff 00 00 00 00	*(u64 *)(r10 - 0x8) = r1
     912:	bf a1 00 00 00 00 00 00	r1 = r10
     913:	07 01 00 00 d8 ff ff ff	r1 += -0x28
     914:	bf a2 00 00 00 00 00 00	r2 = r10
     915:	07 02 00 00 f8 ff ff ff	r2 += -0x8
     916:	b7 03 00 00 08 00 00 00	r3 = 0x8
     917:	85 10 00 00 b1 a9 00 00	call 0xa9b1
     918:	55 00 00 02 00 00 00 00	if r0 != 0x0 goto +0x200 <.text+0x2b98>
     919:	79 91 a0 02 00 00 00 00	r1 = *(u64 *)(r9 + 0x2a0)
     920:	7b 1a f8 ff 00 00 00 00	*(u64 *)(r10 - 0x8) = r1
     921:	bf a1 00 00 00 00 00 00	r1 = r10
     922:	07 01 00 00 d8 ff ff ff	r1 += -0x28
     923:	bf a2 00 00 00 00 00 00	r2 = r10
     924:	07 02 00 00 f8 ff ff ff	r2 += -0x8
     925:	b7 03 00 00 08 00 00 00	r3 = 0x8
     926:	85 10 00 00 a8 a9 00 00	call 0xa9a8
     927:	55 00 f7 01 00 00 00 00	if r0 != 0x0 goto +0x1f7 <.text+0x2b98>
     928:	71 91 95 03 00 00 00 00	w1 = *(u8 *)(r9 + 0x395)
     929:	73 1a f8 ff 00 00 00 00	*(u8 *)(r10 - 0x8) = w1
     930:	bf a1 00 00 00 00 00 00	r1 = r10
     931:	07 01 00 00 d8 ff ff ff	r1 += -0x28
     932:	bf a2 00 00 00 00 00 00	r2 = r10
     933:	07 02 00 00 f8 ff ff ff	r2 += -0x8
     934:	b7 03 00 00 01 00 00 00	r3 = 0x1
     935:	85 10 00 00 9f a9 00 00	call 0xa99f
     936:	55 00 ee 01 00 00 00 00	if r0 != 0x0 goto +0x1ee <.text+0x2b98>
     937:	bf 92 00 00 00 00 00 00	r2 = r9
     938:	07 02 00 00 90 03 00 00	r2 += 0x390
     939:	bf a1 00 00 00 00 00 00	r1 = r10
     940:	07 01 00 00 d8 ff ff ff	r1 += -0x28
     941:	b7 03 00 00 01 00 00 00	r3 = 0x1
     942:	85 10 00 00 98 a9 00 00	call 0xa998
     943:	55 00 e7 01 00 00 00 00	if r0 != 0x0 goto +0x1e7 <.text+0x2b98>
     944:	bf 92 00 00 00 00 00 00	r2 = r9
     945:	07 02 00 00 91 03 00 00	r2 += 0x391
     946:	bf a1 00 00 00 00 00 00	r1 = r10
     947:	07 01 00 00 d8 ff ff ff	r1 += -0x28
     948:	b7 03 00 00 01 00 00 00	r3 = 0x1
     949:	85 10 00 00 91 a9 00 00	call 0xa991
     950:	55 00 e0 01 00 00 00 00	if r0 != 0x0 goto +0x1e0 <.text+0x2b98>
     951:	bf 92 00 00 00 00 00 00	r2 = r9
     952:	07 02 00 00 92 03 00 00	r2 += 0x392
     953:	bf a1 00 00 00 00 00 00	r1 = r10
     954:	07 01 00 00 d8 ff ff ff	r1 += -0x28
     955:	b7 03 00 00 01 00 00 00	r3 = 0x1
     956:	85 10 00 00 8a a9 00 00	call 0xa98a
     957:	55 00 d9 01 00 00 00 00	if r0 != 0x0 goto +0x1d9 <.text+0x2b98>
     958:	bf 92 00 00 00 00 00 00	r2 = r9
     959:	07 02 00 00 93 03 00 00	r2 += 0x393
     960:	bf a1 00 00 00 00 00 00	r1 = r10
     961:	07 01 00 00 d8 ff ff ff	r1 += -0x28
     962:	b7 03 00 00 01 00 00 00	r3 = 0x1
     963:	85 10 00 00 83 a9 00 00	call 0xa983
     964:	55 00 d2 01 00 00 00 00	if r0 != 0x0 goto +0x1d2 <.text+0x2b98>
     965:	bf 92 00 00 00 00 00 00	r2 = r9
     966:	07 02 00 00 94 03 00 00	r2 += 0x394
     967:	bf a1 00 00 00 00 00 00	r1 = r10
     968:	07 01 00 00 d8 ff ff ff	r1 += -0x28
     969:	b7 03 00 00 01 00 00 00	r3 = 0x1
     970:	85 10 00 00 7c a9 00 00	call 0xa97c
     971:	55 00 cb 01 00 00 00 00	if r0 != 0x0 goto +0x1cb <.text+0x2b98>
     972:	bf 92 00 00 00 00 00 00	r2 = r9
     973:	07 02 00 00 a8 00 00 00	r2 += 0xa8
     974:	bf a1 00 00 00 00 00 00	r1 = r10
     975:	07 01 00 00 d8 ff ff ff	r1 += -0x28
     976:	b7 03 00 00 20 00 00 00	r3 = 0x20
     977:	85 10 00 00 75 a9 00 00	call 0xa975
     978:	55 00 c4 01 00 00 00 00	if r0 != 0x0 goto +0x1c4 <.text+0x2b98>
     979:	bf 92 00 00 00 00 00 00	r2 = r9
     980:	07 02 00 00 c8 00 00 00	r2 += 0xc8
     981:	bf a1 00 00 00 00 00 00	r1 = r10
     982:	07 01 00 00 d8 ff ff ff	r1 += -0x28
     983:	b7 03 00 00 20 00 00 00	r3 = 0x20
     984:	85 10 00 00 6e a9 00 00	call 0xa96e
     985:	55 00 bd 01 00 00 00 00	if r0 != 0x0 goto +0x1bd <.text+0x2b98>
     986:	bf 92 00 00 00 00 00 00	r2 = r9
     987:	07 02 00 00 e8 00 00 00	r2 += 0xe8
     988:	bf a1 00 00 00 00 00 00	r1 = r10
     989:	07 01 00 00 d8 ff ff ff	r1 += -0x28
     990:	b7 03 00 00 20 00 00 00	r3 = 0x20
     991:	85 10 00 00 67 a9 00 00	call 0xa967
     992:	55 00 b6 01 00 00 00 00	if r0 != 0x0 goto +0x1b6 <.text+0x2b98>
     993:	bf 92 00 00 00 00 00 00	r2 = r9
     994:	07 02 00 00 08 01 00 00	r2 += 0x108
     995:	bf a1 00 00 00 00 00 00	r1 = r10
     996:	07 01 00 00 d8 ff ff ff	r1 += -0x28
     997:	b7 03 00 00 20 00 00 00	r3 = 0x20
     998:	85 10 00 00 60 a9 00 00	call 0xa960
     999:	55 00 af 01 00 00 00 00	if r0 != 0x0 goto +0x1af <.text+0x2b98>
    1000:	bf 92 00 00 00 00 00 00	r2 = r9
    1001:	07 02 00 00 28 01 00 00	r2 += 0x128
    1002:	bf a1 00 00 00 00 00 00	r1 = r10
    1003:	07 01 00 00 d8 ff ff ff	r1 += -0x28
    1004:	b7 03 00 00 20 00 00 00	r3 = 0x20
    1005:	85 10 00 00 59 a9 00 00	call 0xa959
    1006:	55 00 a8 01 00 00 00 00	if r0 != 0x0 goto +0x1a8 <.text+0x2b98>
    1007:	bf 92 00 00 00 00 00 00	r2 = r9
    1008:	07 02 00 00 48 01 00 00	r2 += 0x148
    1009:	bf a1 00 00 00 00 00 00	r1 = r10
    1010:	07 01 00 00 d8 ff ff ff	r1 += -0x28
    1011:	b7 03 00 00 20 00 00 00	r3 = 0x20
    1012:	85 10 00 00 52 a9 00 00	call 0xa952
    1013:	55 00 a1 01 00 00 00 00	if r0 != 0x0 goto +0x1a1 <.text+0x2b98>
    1014:	bf 92 00 00 00 00 00 00	r2 = r9
    1015:	07 02 00 00 68 01 00 00	r2 += 0x168
    1016:	bf a1 00 00 00 00 00 00	r1 = r10
    1017:	07 01 00 00 d8 ff ff ff	r1 += -0x28
    1018:	b7 03 00 00 20 00 00 00	r3 = 0x20
    1019:	85 10 00 00 4b a9 00 00	call 0xa94b
    1020:	55 00 9a 01 00 00 00 00	if r0 != 0x0 goto +0x19a <.text+0x2b98>
    1021:	bf 92 00 00 00 00 00 00	r2 = r9
    1022:	07 02 00 00 88 01 00 00	r2 += 0x188
    1023:	bf a1 00 00 00 00 00 00	r1 = r10
    1024:	07 01 00 00 d8 ff ff ff	r1 += -0x28
    1025:	b7 03 00 00 20 00 00 00	r3 = 0x20
    1026:	85 10 00 00 44 a9 00 00	call 0xa944
    1027:	55 00 93 01 00 00 00 00	if r0 != 0x0 goto +0x193 <.text+0x2b98>
    1028:	bf 92 00 00 00 00 00 00	r2 = r9
    1029:	07 02 00 00 a8 01 00 00	r2 += 0x1a8
    1030:	bf a1 00 00 00 00 00 00	r1 = r10
    1031:	07 01 00 00 d8 ff ff ff	r1 += -0x28
    1032:	b7 03 00 00 20 00 00 00	r3 = 0x20
    1033:	85 10 00 00 3d a9 00 00	call 0xa93d
    1034:	55 00 8c 01 00 00 00 00	if r0 != 0x0 goto +0x18c <.text+0x2b98>
    1035:	bf 92 00 00 00 00 00 00	r2 = r9
    1036:	07 02 00 00 c8 01 00 00	r2 += 0x1c8
    1037:	bf a1 00 00 00 00 00 00	r1 = r10
    1038:	07 01 00 00 d8 ff ff ff	r1 += -0x28
    1039:	b7 03 00 00 20 00 00 00	r3 = 0x20
    1040:	85 10 00 00 36 a9 00 00	call 0xa936
    1041:	55 00 85 01 00 00 00 00	if r0 != 0x0 goto +0x185 <.text+0x2b98>
    1042:	79 91 08 00 00 00 00 00	r1 = *(u64 *)(r9 + 0x8)
    1043:	7b 1a f8 ff 00 00 00 00	*(u64 *)(r10 - 0x8) = r1
    1044:	bf a1 00 00 00 00 00 00	r1 = r10
    1045:	07 01 00 00 d8 ff ff ff	r1 += -0x28
    1046:	bf a2 00 00 00 00 00 00	r2 = r10
    1047:	07 02 00 00 f8 ff ff ff	r2 += -0x8
    1048:	b7 03 00 00 08 00 00 00	r3 = 0x8
    1049:	85 10 00 00 2d a9 00 00	call 0xa92d
    1050:	55 00 7c 01 00 00 00 00	if r0 != 0x0 goto +0x17c <.text+0x2b98>
    1051:	79 91 10 00 00 00 00 00	r1 = *(u64 *)(r9 + 0x10)
    1052:	7b 1a f8 ff 00 00 00 00	*(u64 *)(r10 - 0x8) = r1
    1053:	bf a1 00 00 00 00 00 00	r1 = r10
    1054:	07 01 00 00 d8 ff ff ff	r1 += -0x28
    1055:	bf a2 00 00 00 00 00 00	r2 = r10
    1056:	07 02 00 00 f8 ff ff ff	r2 += -0x8
    1057:	b7 03 00 00 08 00 00 00	r3 = 0x8
    1058:	85 10 00 00 24 a9 00 00	call 0xa924
    1059:	55 00 73 01 00 00 00 00	if r0 != 0x0 goto +0x173 <.text+0x2b98>
    1060:	79 91 18 00 00 00 00 00	r1 = *(u64 *)(r9 + 0x18)
    1061:	7b 1a f8 ff 00 00 00 00	*(u64 *)(r10 - 0x8) = r1
    1062:	bf a1 00 00 00 00 00 00	r1 = r10
    1063:	07 01 00 00 d8 ff ff ff	r1 += -0x28
    1064:	bf a2 00 00 00 00 00 00	r2 = r10
    1065:	07 02 00 00 f8 ff ff ff	r2 += -0x8
    1066:	b7 03 00 00 08 00 00 00	r3 = 0x8
    1067:	85 10 00 00 1b a9 00 00	call 0xa91b
    1068:	55 00 6a 01 00 00 00 00	if r0 != 0x0 goto +0x16a <.text+0x2b98>
    1069:	79 91 20 00 00 00 00 00	r1 = *(u64 *)(r9 + 0x20)
    1070:	7b 1a f8 ff 00 00 00 00	*(u64 *)(r10 - 0x8) = r1
    1071:	bf a1 00 00 00 00 00 00	r1 = r10
    1072:	07 01 00 00 d8 ff ff ff	r1 += -0x28
    1073:	bf a2 00 00 00 00 00 00	r2 = r10
    1074:	07 02 00 00 f8 ff ff ff	r2 += -0x8
    1075:	b7 03 00 00 08 00 00 00	r3 = 0x8
    1076:	85 10 00 00 12 a9 00 00	call 0xa912
    1077:	55 00 61 01 00 00 00 00	if r0 != 0x0 goto +0x161 <.text+0x2b98>
    1078:	79 91 28 00 00 00 00 00	r1 = *(u64 *)(r9 + 0x28)
    1079:	7b 1a f8 ff 00 00 00 00	*(u64 *)(r10 - 0x8) = r1
    1080:	bf a1 00 00 00 00 00 00	r1 = r10
    1081:	07 01 00 00 d8 ff ff ff	r1 += -0x28
    1082:	bf a2 00 00 00 00 00 00	r2 = r10
    1083:	07 02 00 00 f8 ff ff ff	r2 += -0x8
    1084:	b7 03 00 00 08 00 00 00	r3 = 0x8
    1085:	85 10 00 00 09 a9 00 00	call 0xa909
    1086:	55 00 58 01 00 00 00 00	if r0 != 0x0 goto +0x158 <.text+0x2b98>
    1087:	79 91 30 00 00 00 00 00	r1 = *(u64 *)(r9 + 0x30)
    1088:	7b 1a f8 ff 00 00 00 00	*(u64 *)(r10 - 0x8) = r1
    1089:	bf a1 00 00 00 00 00 00	r1 = r10
    1090:	07 01 00 00 d8 ff ff ff	r1 += -0x28
    1091:	bf a2 00 00 00 00 00 00	r2 = r10
    1092:	07 02 00 00 f8 ff ff ff	r2 += -0x8
    1093:	b7 03 00 00 08 00 00 00	r3 = 0x8
    1094:	85 10 00 00 00 a9 00 00	call 0xa900
    1095:	55 00 4f 01 00 00 00 00	if r0 != 0x0 goto +0x14f <.text+0x2b98>
    1096:	79 91 38 00 00 00 00 00	r1 = *(u64 *)(r9 + 0x38)
    1097:	7b 1a f8 ff 00 00 00 00	*(u64 *)(r10 - 0x8) = r1
    1098:	bf a1 00 00 00 00 00 00	r1 = r10
    1099:	07 01 00 00 d8 ff ff ff	r1 += -0x28
    1100:	bf a2 00 00 00 00 00 00	r2 = r10
    1101:	07 02 00 00 f8 ff ff ff	r2 += -0x8
    1102:	b7 03 00 00 08 00 00 00	r3 = 0x8
    1103:	85 10 00 00 f7 a8 00 00	call 0xa8f7
    1104:	55 00 46 01 00 00 00 00	if r0 != 0x0 goto +0x146 <.text+0x2b98>
    1105:	79 91 40 00 00 00 00 00	r1 = *(u64 *)(r9 + 0x40)
    1106:	7b 1a f8 ff 00 00 00 00	*(u64 *)(r10 - 0x8) = r1
    1107:	bf a1 00 00 00 00 00 00	r1 = r10
    1108:	07 01 00 00 d8 ff ff ff	r1 += -0x28
    1109:	bf a2 00 00 00 00 00 00	r2 = r10
    1110:	07 02 00 00 f8 ff ff ff	r2 += -0x8
    1111:	b7 03 00 00 08 00 00 00	r3 = 0x8
    1112:	85 10 00 00 ee a8 00 00	call 0xa8ee
    1113:	55 00 3d 01 00 00 00 00	if r0 != 0x0 goto +0x13d <.text+0x2b98>
    1114:	bf 92 00 00 00 00 00 00	r2 = r9
    1115:	07 02 00 00 90 02 00 00	r2 += 0x290
    1116:	bf a1 00 00 00 00 00 00	r1 = r10
    1117:	07 01 00 00 d8 ff ff ff	r1 += -0x28
    1118:	b7 03 00 00 01 00 00 00	r3 = 0x1
    1119:	85 10 00 00 e7 a8 00 00	call 0xa8e7
    1120:	55 00 36 01 00 00 00 00	if r0 != 0x0 goto +0x136 <.text+0x2b98>
    1121:	79 91 88 02 00 00 00 00	r1 = *(u64 *)(r9 + 0x288)
    1122:	7b 1a f8 ff 00 00 00 00	*(u64 *)(r10 - 0x8) = r1
    1123:	bf a1 00 00 00 00 00 00	r1 = r10
    1124:	07 01 00 00 d8 ff ff ff	r1 += -0x28
    1125:	bf a2 00 00 00 00 00 00	r2 = r10
    1126:	07 02 00 00 f8 ff ff ff	r2 += -0x8
    1127:	b7 03 00 00 08 00 00 00	r3 = 0x8
    1128:	85 10 00 00 de a8 00 00	call 0xa8de
    1129:	55 00 2d 01 00 00 00 00	if r0 != 0x0 goto +0x12d <.text+0x2b98>
    1130:	79 91 a8 02 00 00 00 00	r1 = *(u64 *)(r9 + 0x2a8)
    1131:	7b 1a f8 ff 00 00 00 00	*(u64 *)(r10 - 0x8) = r1
    1132:	bf a1 00 00 00 00 00 00	r1 = r10
    1133:	07 01 00 00 d8 ff ff ff	r1 += -0x28
    1134:	bf a2 00 00 00 00 00 00	r2 = r10
    1135:	07 02 00 00 f8 ff ff ff	r2 += -0x8
    1136:	b7 03 00 00 08 00 00 00	r3 = 0x8
    1137:	85 10 00 00 d5 a8 00 00	call 0xa8d5
    1138:	55 00 24 01 00 00 00 00	if r0 != 0x0 goto +0x124 <.text+0x2b98>
    1139:	79 91 b0 02 00 00 00 00	r1 = *(u64 *)(r9 + 0x2b0)
    1140:	7b 1a f8 ff 00 00 00 00	*(u64 *)(r10 - 0x8) = r1
    1141:	bf a1 00 00 00 00 00 00	r1 = r10
    1142:	07 01 00 00 d8 ff ff ff	r1 += -0x28
    1143:	bf a2 00 00 00 00 00 00	r2 = r10
    1144:	07 02 00 00 f8 ff ff ff	r2 += -0x8
    1145:	b7 03 00 00 08 00 00 00	r3 = 0x8
    1146:	85 10 00 00 cc a8 00 00	call 0xa8cc
    1147:	55 00 1b 01 00 00 00 00	if r0 != 0x0 goto +0x11b <.text+0x2b98>
    1148:	79 91 b8 02 00 00 00 00	r1 = *(u64 *)(r9 + 0x2b8)
    1149:	7b 1a f8 ff 00 00 00 00	*(u64 *)(r10 - 0x8) = r1
    1150:	bf a1 00 00 00 00 00 00	r1 = r10
    1151:	07 01 00 00 d8 ff ff ff	r1 += -0x28
    1152:	bf a2 00 00 00 00 00 00	r2 = r10
    1153:	07 02 00 00 f8 ff ff ff	r2 += -0x8
    1154:	b7 03 00 00 08 00 00 00	r3 = 0x8
    1155:	85 10 00 00 c3 a8 00 00	call 0xa8c3
    1156:	55 00 12 01 00 00 00 00	if r0 != 0x0 goto +0x112 <.text+0x2b98>
    1157:	79 91 c0 02 00 00 00 00	r1 = *(u64 *)(r9 + 0x2c0)
    1158:	7b 1a f8 ff 00 00 00 00	*(u64 *)(r10 - 0x8) = r1
    1159:	bf a1 00 00 00 00 00 00	r1 = r10
    1160:	07 01 00 00 d8 ff ff ff	r1 += -0x28
    1161:	bf a2 00 00 00 00 00 00	r2 = r10
    1162:	07 02 00 00 f8 ff ff ff	r2 += -0x8
    1163:	b7 03 00 00 08 00 00 00	r3 = 0x8
    1164:	85 10 00 00 ba a8 00 00	call 0xa8ba
    1165:	55 00 09 01 00 00 00 00	if r0 != 0x0 goto +0x109 <.text+0x2b98>
    1166:	79 91 c8 02 00 00 00 00	r1 = *(u64 *)(r9 + 0x2c8)
    1167:	7b 1a f8 ff 00 00 00 00	*(u64 *)(r10 - 0x8) = r1
    1168:	bf a1 00 00 00 00 00 00	r1 = r10
    1169:	07 01 00 00 d8 ff ff ff	r1 += -0x28
    1170:	bf a2 00 00 00 00 00 00	r2 = r10
    1171:	07 02 00 00 f8 ff ff ff	r2 += -0x8
    1172:	b7 03 00 00 08 00 00 00	r3 = 0x8
    1173:	85 10 00 00 b1 a8 00 00	call 0xa8b1
    1174:	55 00 00 01 00 00 00 00	if r0 != 0x0 goto +0x100 <.text+0x2b98>
    1175:	79 91 d0 02 00 00 00 00	r1 = *(u64 *)(r9 + 0x2d0)
    1176:	7b 1a f8 ff 00 00 00 00	*(u64 *)(r10 - 0x8) = r1
    1177:	bf a1 00 00 00 00 00 00	r1 = r10
    1178:	07 01 00 00 d8 ff ff ff	r1 += -0x28
    1179:	bf a2 00 00 00 00 00 00	r2 = r10
    1180:	07 02 00 00 f8 ff ff ff	r2 += -0x8
    1181:	b7 03 00 00 08 00 00 00	r3 = 0x8
    1182:	85 10 00 00 a8 a8 00 00	call 0xa8a8
    1183:	55 00 f7 00 00 00 00 00	if r0 != 0x0 goto +0xf7 <.text+0x2b98>
    1184:	79 91 d8 02 00 00 00 00	r1 = *(u64 *)(r9 + 0x2d8)
    1185:	7b 1a f8 ff 00 00 00 00	*(u64 *)(r10 - 0x8) = r1
    1186:	bf a1 00 00 00 00 00 00	r1 = r10
    1187:	07 01 00 00 d8 ff ff ff	r1 += -0x28
    1188:	bf a2 00 00 00 00 00 00	r2 = r10
    1189:	07 02 00 00 f8 ff ff ff	r2 += -0x8
    1190:	b7 03 00 00 08 00 00 00	r3 = 0x8
    1191:	85 10 00 00 9f a8 00 00	call 0xa89f
    1192:	55 00 ee 00 00 00 00 00	if r0 != 0x0 goto +0xee <.text+0x2b98>
    1193:	79 91 e0 02 00 00 00 00	r1 = *(u64 *)(r9 + 0x2e0)
    1194:	7b 1a f8 ff 00 00 00 00	*(u64 *)(r10 - 0x8) = r1
    1195:	bf a1 00 00 00 00 00 00	r1 = r10
    1196:	07 01 00 00 d8 ff ff ff	r1 += -0x28
    1197:	bf a2 00 00 00 00 00 00	r2 = r10
    1198:	07 02 00 00 f8 ff ff ff	r2 += -0x8
    1199:	b7 03 00 00 08 00 00 00	r3 = 0x8
    1200:	85 10 00 00 96 a8 00 00	call 0xa896
    1201:	55 00 e5 00 00 00 00 00	if r0 != 0x0 goto +0xe5 <.text+0x2b98>
    1202:	79 91 e8 02 00 00 00 00	r1 = *(u64 *)(r9 + 0x2e8)
    1203:	7b 1a f8 ff 00 00 00 00	*(u64 *)(r10 - 0x8) = r1
    1204:	bf a1 00 00 00 00 00 00	r1 = r10
    1205:	07 01 00 00 d8 ff ff ff	r1 += -0x28
    1206:	bf a2 00 00 00 00 00 00	r2 = r10
    1207:	07 02 00 00 f8 ff ff ff	r2 += -0x8
    1208:	b7 03 00 00 08 00 00 00	r3 = 0x8
    1209:	85 10 00 00 8d a8 00 00	call 0xa88d
    1210:	55 00 dc 00 00 00 00 00	if r0 != 0x0 goto +0xdc <.text+0x2b98>
    1211:	79 91 f0 02 00 00 00 00	r1 = *(u64 *)(r9 + 0x2f0)
    1212:	7b 1a f8 ff 00 00 00 00	*(u64 *)(r10 - 0x8) = r1
    1213:	bf a1 00 00 00 00 00 00	r1 = r10
    1214:	07 01 00 00 d8 ff ff ff	r1 += -0x28
    1215:	bf a2 00 00 00 00 00 00	r2 = r10
    1216:	07 02 00 00 f8 ff ff ff	r2 += -0x8
    1217:	b7 03 00 00 08 00 00 00	r3 = 0x8
    1218:	85 10 00 00 84 a8 00 00	call 0xa884
    1219:	55 00 d3 00 00 00 00 00	if r0 != 0x0 goto +0xd3 <.text+0x2b98>
    1220:	79 91 f8 02 00 00 00 00	r1 = *(u64 *)(r9 + 0x2f8)
    1221:	7b 1a f8 ff 00 00 00 00	*(u64 *)(r10 - 0x8) = r1
    1222:	bf a1 00 00 00 00 00 00	r1 = r10
    1223:	07 01 00 00 d8 ff ff ff	r1 += -0x28
    1224:	bf a2 00 00 00 00 00 00	r2 = r10
    1225:	07 02 00 00 f8 ff ff ff	r2 += -0x8
    1226:	b7 03 00 00 08 00 00 00	r3 = 0x8
    1227:	85 10 00 00 7b a8 00 00	call 0xa87b
    1228:	55 00 ca 00 00 00 00 00	if r0 != 0x0 goto +0xca <.text+0x2b98>
    1229:	79 91 00 03 00 00 00 00	r1 = *(u64 *)(r9 + 0x300)
    1230:	7b 1a f8 ff 00 00 00 00	*(u64 *)(r10 - 0x8) = r1
    1231:	bf a1 00 00 00 00 00 00	r1 = r10
    1232:	07 01 00 00 d8 ff ff ff	r1 += -0x28
    1233:	bf a2 00 00 00 00 00 00	r2 = r10
    1234:	07 02 00 00 f8 ff ff ff	r2 += -0x8
    1235:	b7 03 00 00 08 00 00 00	r3 = 0x8
    1236:	85 10 00 00 72 a8 00 00	call 0xa872
    1237:	55 00 c1 00 00 00 00 00	if r0 != 0x0 goto +0xc1 <.text+0x2b98>
    1238:	79 91 08 03 00 00 00 00	r1 = *(u64 *)(r9 + 0x308)
    1239:	7b 1a f8 ff 00 00 00 00	*(u64 *)(r10 - 0x8) = r1
    1240:	bf a1 00 00 00 00 00 00	r1 = r10
    1241:	07 01 00 00 d8 ff ff ff	r1 += -0x28
    1242:	bf a2 00 00 00 00 00 00	r2 = r10
    1243:	07 02 00 00 f8 ff ff ff	r2 += -0x8
    1244:	b7 03 00 00 08 00 00 00	r3 = 0x8
    1245:	85 10 00 00 69 a8 00 00	call 0xa869
    1246:	55 00 b8 00 00 00 00 00	if r0 != 0x0 goto +0xb8 <.text+0x2b98>
    1247:	79 91 10 03 00 00 00 00	r1 = *(u64 *)(r9 + 0x310)
    1248:	7b 1a f8 ff 00 00 00 00	*(u64 *)(r10 - 0x8) = r1
    1249:	bf a1 00 00 00 00 00 00	r1 = r10
    1250:	07 01 00 00 d8 ff ff ff	r1 += -0x28
    1251:	bf a2 00 00 00 00 00 00	r2 = r10
    1252:	07 02 00 00 f8 ff ff ff	r2 += -0x8
    1253:	b7 03 00 00 08 00 00 00	r3 = 0x8
    1254:	85 10 00 00 60 a8 00 00	call 0xa860
    1255:	55 00 af 00 00 00 00 00	if r0 != 0x0 goto +0xaf <.text+0x2b98>
    1256:	79 91 18 03 00 00 00 00	r1 = *(u64 *)(r9 + 0x318)
    1257:	7b 1a f8 ff 00 00 00 00	*(u64 *)(r10 - 0x8) = r1
    1258:	bf a1 00 00 00 00 00 00	r1 = r10
    1259:	07 01 00 00 d8 ff ff ff	r1 += -0x28
    1260:	bf a2 00 00 00 00 00 00	r2 = r10
    1261:	07 02 00 00 f8 ff ff ff	r2 += -0x8
    1262:	b7 03 00 00 08 00 00 00	r3 = 0x8
    1263:	85 10 00 00 57 a8 00 00	call 0xa857
    1264:	55 00 a6 00 00 00 00 00	if r0 != 0x0 goto +0xa6 <.text+0x2b98>
    1265:	79 91 20 03 00 00 00 00	r1 = *(u64 *)(r9 + 0x320)
    1266:	7b 1a f8 ff 00 00 00 00	*(u64 *)(r10 - 0x8) = r1
    1267:	bf a1 00 00 00 00 00 00	r1 = r10
    1268:	07 01 00 00 d8 ff ff ff	r1 += -0x28
    1269:	bf a2 00 00 00 00 00 00	r2 = r10
    1270:	07 02 00 00 f8 ff ff ff	r2 += -0x8
    1271:	b7 03 00 00 08 00 00 00	r3 = 0x8
    1272:	85 10 00 00 4e a8 00 00	call 0xa84e
    1273:	55 00 9d 00 00 00 00 00	if r0 != 0x0 goto +0x9d <.text+0x2b98>
    1274:	79 91 28 03 00 00 00 00	r1 = *(u64 *)(r9 + 0x328)
    1275:	7b 1a f8 ff 00 00 00 00	*(u64 *)(r10 - 0x8) = r1
    1276:	bf a1 00 00 00 00 00 00	r1 = r10
    1277:	07 01 00 00 d8 ff ff ff	r1 += -0x28
    1278:	bf a2 00 00 00 00 00 00	r2 = r10
    1279:	07 02 00 00 f8 ff ff ff	r2 += -0x8
    1280:	b7 03 00 00 08 00 00 00	r3 = 0x8
    1281:	85 10 00 00 45 a8 00 00	call 0xa845
    1282:	55 00 94 00 00 00 00 00	if r0 != 0x0 goto +0x94 <.text+0x2b98>
    1283:	79 91 30 03 00 00 00 00	r1 = *(u64 *)(r9 + 0x330)
    1284:	7b 1a f8 ff 00 00 00 00	*(u64 *)(r10 - 0x8) = r1
    1285:	bf a1 00 00 00 00 00 00	r1 = r10
    1286:	07 01 00 00 d8 ff ff ff	r1 += -0x28
    1287:	bf a2 00 00 00 00 00 00	r2 = r10
    1288:	07 02 00 00 f8 ff ff ff	r2 += -0x8
    1289:	b7 03 00 00 08 00 00 00	r3 = 0x8
    1290:	85 10 00 00 3c a8 00 00	call 0xa83c
    1291:	55 00 8b 00 00 00 00 00	if r0 != 0x0 goto +0x8b <.text+0x2b98>
    1292:	79 91 38 03 00 00 00 00	r1 = *(u64 *)(r9 + 0x338)
    1293:	7b 1a f8 ff 00 00 00 00	*(u64 *)(r10 - 0x8) = r1
    1294:	bf a1 00 00 00 00 00 00	r1 = r10
    1295:	07 01 00 00 d8 ff ff ff	r1 += -0x28
    1296:	bf a2 00 00 00 00 00 00	r2 = r10
    1297:	07 02 00 00 f8 ff ff ff	r2 += -0x8
    1298:	b7 03 00 00 08 00 00 00	r3 = 0x8
    1299:	85 10 00 00 33 a8 00 00	call 0xa833
    1300:	55 00 82 00 00 00 00 00	if r0 != 0x0 goto +0x82 <.text+0x2b98>
    1301:	79 91 40 03 00 00 00 00	r1 = *(u64 *)(r9 + 0x340)
    1302:	7b 1a f8 ff 00 00 00 00	*(u64 *)(r10 - 0x8) = r1
    1303:	bf a1 00 00 00 00 00 00	r1 = r10
    1304:	07 01 00 00 d8 ff ff ff	r1 += -0x28
    1305:	bf a2 00 00 00 00 00 00	r2 = r10
    1306:	07 02 00 00 f8 ff ff ff	r2 += -0x8
    1307:	b7 03 00 00 08 00 00 00	r3 = 0x8
    1308:	85 10 00 00 2a a8 00 00	call 0xa82a
    1309:	55 00 79 00 00 00 00 00	if r0 != 0x0 goto +0x79 <.text+0x2b98>
    1310:	79 91 48 03 00 00 00 00	r1 = *(u64 *)(r9 + 0x348)
    1311:	7b 1a f8 ff 00 00 00 00	*(u64 *)(r10 - 0x8) = r1
    1312:	bf a1 00 00 00 00 00 00	r1 = r10
    1313:	07 01 00 00 d8 ff ff ff	r1 += -0x28
    1314:	bf a2 00 00 00 00 00 00	r2 = r10
    1315:	07 02 00 00 f8 ff ff ff	r2 += -0x8
    1316:	b7 03 00 00 08 00 00 00	r3 = 0x8
    1317:	85 10 00 00 21 a8 00 00	call 0xa821
    1318:	55 00 70 00 00 00 00 00	if r0 != 0x0 goto +0x70 <.text+0x2b98>
    1319:	79 91 50 03 00 00 00 00	r1 = *(u64 *)(r9 + 0x350)
    1320:	7b 1a f8 ff 00 00 00 00	*(u64 *)(r10 - 0x8) = r1
    1321:	bf a1 00 00 00 00 00 00	r1 = r10
    1322:	07 01 00 00 d8 ff ff ff	r1 += -0x28
    1323:	bf a2 00 00 00 00 00 00	r2 = r10
    1324:	07 02 00 00 f8 ff ff ff	r2 += -0x8
    1325:	b7 03 00 00 08 00 00 00	r3 = 0x8
    1326:	85 10 00 00 18 a8 00 00	call 0xa818
    1327:	55 00 67 00 00 00 00 00	if r0 != 0x0 goto +0x67 <.text+0x2b98>
    1328:	79 91 58 03 00 00 00 00	r1 = *(u64 *)(r9 + 0x358)
    1329:	7b 1a f8 ff 00 00 00 00	*(u64 *)(r10 - 0x8) = r1
    1330:	bf a1 00 00 00 00 00 00	r1 = r10
    1331:	07 01 00 00 d8 ff ff ff	r1 += -0x28
    1332:	bf a2 00 00 00 00 00 00	r2 = r10
    1333:	07 02 00 00 f8 ff ff ff	r2 += -0x8
    1334:	b7 03 00 00 08 00 00 00	r3 = 0x8
    1335:	85 10 00 00 0f a8 00 00	call 0xa80f
    1336:	55 00 5e 00 00 00 00 00	if r0 != 0x0 goto +0x5e <.text+0x2b98>
    1337:	79 91 60 03 00 00 00 00	r1 = *(u64 *)(r9 + 0x360)
    1338:	7b 1a f8 ff 00 00 00 00	*(u64 *)(r10 - 0x8) = r1
    1339:	bf a1 00 00 00 00 00 00	r1 = r10
    1340:	07 01 00 00 d8 ff ff ff	r1 += -0x28
    1341:	bf a2 00 00 00 00 00 00	r2 = r10
    1342:	07 02 00 00 f8 ff ff ff	r2 += -0x8
    1343:	b7 03 00 00 08 00 00 00	r3 = 0x8
    1344:	85 10 00 00 06 a8 00 00	call 0xa806
    1345:	55 00 55 00 00 00 00 00	if r0 != 0x0 goto +0x55 <.text+0x2b98>
    1346:	79 91 68 03 00 00 00 00	r1 = *(u64 *)(r9 + 0x368)
    1347:	7b 1a f8 ff 00 00 00 00	*(u64 *)(r10 - 0x8) = r1
    1348:	bf a1 00 00 00 00 00 00	r1 = r10
    1349:	07 01 00 00 d8 ff ff ff	r1 += -0x28
    1350:	bf a2 00 00 00 00 00 00	r2 = r10
    1351:	07 02 00 00 f8 ff ff ff	r2 += -0x8
    1352:	b7 03 00 00 08 00 00 00	r3 = 0x8
    1353:	85 10 00 00 fd a7 00 00	call 0xa7fd
    1354:	55 00 4c 00 00 00 00 00	if r0 != 0x0 goto +0x4c <.text+0x2b98>
    1355:	79 91 70 03 00 00 00 00	r1 = *(u64 *)(r9 + 0x370)
    1356:	7b 1a f8 ff 00 00 00 00	*(u64 *)(r10 - 0x8) = r1
    1357:	bf a1 00 00 00 00 00 00	r1 = r10
    1358:	07 01 00 00 d8 ff ff ff	r1 += -0x28
    1359:	bf a2 00 00 00 00 00 00	r2 = r10
    1360:	07 02 00 00 f8 ff ff ff	r2 += -0x8
    1361:	b7 03 00 00 08 00 00 00	r3 = 0x8
    1362:	85 10 00 00 f4 a7 00 00	call 0xa7f4
    1363:	55 00 43 00 00 00 00 00	if r0 != 0x0 goto +0x43 <.text+0x2b98>
    1364:	79 91 78 03 00 00 00 00	r1 = *(u64 *)(r9 + 0x378)
    1365:	7b 1a f8 ff 00 00 00 00	*(u64 *)(r10 - 0x8) = r1
    1366:	bf a1 00 00 00 00 00 00	r1 = r10
    1367:	07 01 00 00 d8 ff ff ff	r1 += -0x28
    1368:	bf a2 00 00 00 00 00 00	r2 = r10
    1369:	07 02 00 00 f8 ff ff ff	r2 += -0x8
    1370:	b7 03 00 00 08 00 00 00	r3 = 0x8
    1371:	85 10 00 00 eb a7 00 00	call 0xa7eb
    1372:	55 00 3a 00 00 00 00 00	if r0 != 0x0 goto +0x3a <.text+0x2b98>
    1373:	79 91 80 03 00 00 00 00	r1 = *(u64 *)(r9 + 0x380)
    1374:	7b 1a f8 ff 00 00 00 00	*(u64 *)(r10 - 0x8) = r1
    1375:	bf a1 00 00 00 00 00 00	r1 = r10
    1376:	07 01 00 00 d8 ff ff ff	r1 += -0x28
    1377:	bf a2 00 00 00 00 00 00	r2 = r10
    1378:	07 02 00 00 f8 ff ff ff	r2 += -0x8
    1379:	b7 03 00 00 08 00 00 00	r3 = 0x8
    1380:	85 10 00 00 e2 a7 00 00	call 0xa7e2
    1381:	55 00 31 00 00 00 00 00	if r0 != 0x0 goto +0x31 <.text+0x2b98>
    1382:	79 91 88 03 00 00 00 00	r1 = *(u64 *)(r9 + 0x388)
    1383:	7b 1a f8 ff 00 00 00 00	*(u64 *)(r10 - 0x8) = r1
    1384:	bf a1 00 00 00 00 00 00	r1 = r10
    1385:	07 01 00 00 d8 ff ff ff	r1 += -0x28
    1386:	bf a2 00 00 00 00 00 00	r2 = r10
    1387:	07 02 00 00 f8 ff ff ff	r2 += -0x8
    1388:	b7 03 00 00 08 00 00 00	r3 = 0x8
    1389:	85 10 00 00 d9 a7 00 00	call 0xa7d9
    1390:	55 00 28 00 00 00 00 00	if r0 != 0x0 goto +0x28 <.text+0x2b98>
    1391:	bf 92 00 00 00 00 00 00	r2 = r9
    1392:	07 02 00 00 e8 01 00 00	r2 += 0x1e8
    1393:	bf a1 00 00 00 00 00 00	r1 = r10
    1394:	07 01 00 00 d8 ff ff ff	r1 += -0x28
    1395:	b7 03 00 00 20 00 00 00	r3 = 0x20
    1396:	85 10 00 00 d2 a7 00 00	call 0xa7d2
    1397:	55 00 21 00 00 00 00 00	if r0 != 0x0 goto +0x21 <.text+0x2b98>
    1398:	bf 92 00 00 00 00 00 00	r2 = r9
    1399:	07 02 00 00 08 02 00 00	r2 += 0x208
    1400:	bf a1 00 00 00 00 00 00	r1 = r10
    1401:	07 01 00 00 d8 ff ff ff	r1 += -0x28
    1402:	b7 03 00 00 20 00 00 00	r3 = 0x20
    1403:	85 10 00 00 cb a7 00 00	call 0xa7cb
    1404:	55 00 1a 00 00 00 00 00	if r0 != 0x0 goto +0x1a <.text+0x2b98>
    1405:	bf 92 00 00 00 00 00 00	r2 = r9
    1406:	07 02 00 00 28 02 00 00	r2 += 0x228
    1407:	bf a1 00 00 00 00 00 00	r1 = r10
    1408:	07 01 00 00 d8 ff ff ff	r1 += -0x28
    1409:	b7 03 00 00 20 00 00 00	r3 = 0x20
    1410:	85 10 00 00 c4 a7 00 00	call 0xa7c4
    1411:	55 00 13 00 00 00 00 00	if r0 != 0x0 goto +0x13 <.text+0x2b98>
    1412:	bf 92 00 00 00 00 00 00	r2 = r9
    1413:	07 02 00 00 48 02 00 00	r2 += 0x248
    1414:	bf a1 00 00 00 00 00 00	r1 = r10
    1415:	07 01 00 00 d8 ff ff ff	r1 += -0x28
    1416:	b7 03 00 00 20 00 00 00	r3 = 0x20
    1417:	85 10 00 00 bd a7 00 00	call 0xa7bd
    1418:	55 00 0c 00 00 00 00 00	if r0 != 0x0 goto +0xc <.text+0x2b98>
    1419:	07 09 00 00 68 02 00 00	r9 += 0x268
    1420:	bf a1 00 00 00 00 00 00	r1 = r10
    1421:	07 01 00 00 d8 ff ff ff	r1 += -0x28
    1422:	bf 92 00 00 00 00 00 00	r2 = r9
    1423:	b7 03 00 00 20 00 00 00	r3 = 0x20
    1424:	85 10 00 00 b6 a7 00 00	call 0xa7b6
    1425:	55 00 05 00 00 00 00 00	if r0 != 0x0 goto +0x5 <.text+0x2b98>
    1426:	79 81 00 00 00 00 00 00	r1 = *(u64 *)(r8 + 0x0)
    1427:	07 01 00 00 01 00 00 00	r1 += 0x1
    1428:	7b 18 00 00 00 00 00 00	*(u64 *)(r8 + 0x0) = r1
    1429:	b7 09 00 00 02 00 00 00	r9 = 0x2
    1430:	05 00 17 00 00 00 00 00	goto +0x17 <.text+0x2c50>
    1431:	bf 01 00 00 00 00 00 00	r1 = r0
    1432:	57 01 00 00 03 00 00 00	r1 &= 0x3
    1433:	bf 12 00 00 00 00 00 00	r2 = r1
    1434:	07 02 00 00 fe ff ff ff	r2 += -0x2
    1435:	b7 03 00 00 02 00 00 00	r3 = 0x2
    1436:	b7 09 00 00 02 00 00 00	r9 = 0x2
    1437:	2d 23 05 00 00 00 00 00	if r3 > r2 goto +0x5 <.text+0x2bf8>
    1438:	15 01 04 00 00 00 00 00	if r1 == 0x0 goto +0x4 <.text+0x2bf8>
    1439:	79 01 ff ff 00 00 00 00	r1 = *(u64 *)(r0 - 0x1)
    1440:	79 02 07 00 00 00 00 00	r2 = *(u64 *)(r0 + 0x7)
    1441:	79 22 00 00 00 00 00 00	r2 = *(u64 *)(r2 + 0x0)
    1442:	8d 00 00 00 02 00 00 00	callx r0
    1443:	bf a1 00 00 00 00 00 00	r1 = r10
    1444:	07 01 00 00 88 ff ff ff	r1 += -0x78
    1445:	b7 02 00 00 bc 0b 00 00	r2 = 0xbbc
    1446:	85 10 00 00 d0 ae 00 00	call 0xaed0
    1447:	79 a1 90 ff 00 00 00 00	r1 = *(u64 *)(r10 - 0x70)
    1448:	79 a2 88 ff 00 00 00 00	r2 = *(u64 *)(r10 - 0x78)
    1449:	79 83 00 00 00 00 00 00	r3 = *(u64 *)(r8 + 0x0)
    1450:	07 03 00 00 01 00 00 00	r3 += 0x1
    1451:	7b 38 00 00 00 00 00 00	*(u64 *)(r8 + 0x0) = r3
    1452:	15 02 01 00 02 00 00 00	if r2 == 0x2 goto +0x1 <.text+0x2c50>
    1453:	05 00 11 00 00 00 00 00	goto +0x11 <.text+0x2cd8>
    1454:	79 a1 b8 ff 00 00 00 00	r1 = *(u64 *)(r10 - 0x48)
    1455:	79 a2 b0 ff 00 00 00 00	r2 = *(u64 *)(r10 - 0x50)
    1456:	79 23 00 00 00 00 00 00	r3 = *(u64 *)(r2 + 0x0)
    1457:	07 03 00 00 ff ff ff ff	r3 += -0x1
    1458:	7b 32 00 00 00 00 00 00	*(u64 *)(r2 + 0x0) = r3
    1459:	55 03 03 00 00 00 00 00	if r3 != 0x0 goto +0x3 <.text+0x2c98>
    1460:	79 23 08 00 00 00 00 00	r3 = *(u64 *)(r2 + 0x8)
    1461:	07 03 00 00 ff ff ff ff	r3 += -0x1
    1462:	7b 32 08 00 00 00 00 00	*(u64 *)(r2 + 0x8) = r3
    1463:	79 12 00 00 00 00 00 00	r2 = *(u64 *)(r1 + 0x0)
    1464:	07 02 00 00 ff ff ff ff	r2 += -0x1
    1465:	7b 21 00 00 00 00 00 00	*(u64 *)(r1 + 0x0) = r2
    1466:	55 02 03 00 00 00 00 00	if r2 != 0x0 goto +0x3 <.text+0x2cd0>
    1467:	79 12 08 00 00 00 00 00	r2 = *(u64 *)(r1 + 0x8)
    1468:	07 02 00 00 ff ff ff ff	r2 += -0x1
    1469:	7b 21 08 00 00 00 00 00	*(u64 *)(r1 + 0x8) = r2
    1470:	05 00 11 00 00 00 00 00	goto +0x11 <.text+0x2d60>
    1471:	79 a3 b8 ff 00 00 00 00	r3 = *(u64 *)(r10 - 0x48)
    1472:	79 a4 b0 ff 00 00 00 00	r4 = *(u64 *)(r10 - 0x50)
    1473:	79 45 00 00 00 00 00 00	r5 = *(u64 *)(r4 + 0x0)
    1474:	07 05 00 00 ff ff ff ff	r5 += -0x1
    1475:	7b 54 00 00 00 00 00 00	*(u64 *)(r4 + 0x0) = r5
    1476:	55 05 03 00 00 00 00 00	if r5 != 0x0 goto +0x3 <.text+0x2d20>
    1477:	79 45 08 00 00 00 00 00	r5 = *(u64 *)(r4 + 0x8)
    1478:	07 05 00 00 ff ff ff ff	r5 += -0x1
    1479:	7b 54 08 00 00 00 00 00	*(u64 *)(r4 + 0x8) = r5
    1480:	79 34 00 00 00 00 00 00	r4 = *(u64 *)(r3 + 0x0)
    1481:	07 04 00 00 ff ff ff ff	r4 += -0x1
    1482:	7b 43 00 00 00 00 00 00	*(u64 *)(r3 + 0x0) = r4
    1483:	55 04 03 00 00 00 00 00	if r4 != 0x0 goto +0x3 <.text+0x2d58>
    1484:	79 34 08 00 00 00 00 00	r4 = *(u64 *)(r3 + 0x8)
    1485:	07 04 00 00 ff ff ff ff	r4 += -0x1
    1486:	7b 43 08 00 00 00 00 00	*(u64 *)(r3 + 0x8) = r4
    1487:	bf 29 00 00 00 00 00 00	r9 = r2
    1488:	7b 16 08 00 00 00 00 00	*(u64 *)(r6 + 0x8) = r1
    1489:	7b 96 00 00 00 00 00 00	*(u64 *)(r6 + 0x0) = r9
    1490:	95 00 00 00 00 00 00 00	exit
    1491:	bf 27 00 00 00 00 00 00	r7 = r2
    1492:	bf 16 00 00 00 00 00 00	r6 = r1
    1493:	79 41 00 00 00 00 00 00	r1 = *(u64 *)(r4 + 0x0)
    1494:	79 32 00 00 00 00 00 00	r2 = *(u64 *)(r3 + 0x0)
    1495:	1d 12 02 00 00 00 00 00	if r2 == r1 goto +0x2 <.text+0x2db0>
    1496:	b7 02 00 00 01 00 00 00	r2 = 0x1
    1497:	05 00 0a 00 00 00 00 00	goto +0xa <.text+0x2e00>
    1498:	79 41 08 00 00 00 00 00	r1 = *(u64 *)(r4 + 0x8)
    1499:	79 32 08 00 00 00 00 00	r2 = *(u64 *)(r3 + 0x8)
    1500:	5d 12 fb ff 00 00 00 00	if r2 != r1 goto -0x5 <.text+0x2da0>
    1501:	79 41 10 00 00 00 00 00	r1 = *(u64 *)(r4 + 0x10)
    1502:	79 32 10 00 00 00 00 00	r2 = *(u64 *)(r3 + 0x10)
    1503:	5d 12 f8 ff 00 00 00 00	if r2 != r1 goto -0x8 <.text+0x2da0>
    1504:	b7 02 00 00 00 00 00 00	r2 = 0x0
    1505:	79 41 18 00 00 00 00 00	r1 = *(u64 *)(r4 + 0x18)
    1506:	79 33 18 00 00 00 00 00	r3 = *(u64 *)(r3 + 0x18)
    1507:	5d 13 f4 ff 00 00 00 00	if r3 != r1 goto -0xc <.text+0x2da0>
    1508:	b7 09 00 00 02 00 00 00	r9 = 0x2
    1509:	55 02 a2 00 00 00 00 00	if r2 != 0x0 goto +0xa2 <.text+0x3320>
    1510:	79 78 00 00 00 00 00 00	r8 = *(u64 *)(r7 + 0x0)
    1511:	bf 81 00 00 00 00 00 00	r1 = r8
    1512:	85 10 00 00 0c a8 00 00	call 0xa80c
    1513:	55 00 9e 00 00 00 00 00	if r0 != 0x0 goto +0x9e <.text+0x3320>
    1514:	79 81 08 00 00 00 00 00	r1 = *(u64 *)(r8 + 0x8)
    1515:	79 13 00 00 00 00 00 00	r3 = *(u64 *)(r1 + 0x0)
    1516:	07 03 00 00 01 00 00 00	r3 += 0x1
    1517:	b7 04 00 00 01 00 00 00	r4 = 0x1
    1518:	15 03 01 00 00 00 00 00	if r3 == 0x0 goto +0x1 <.text+0x2e60>
    1519:	b7 04 00 00 00 00 00 00	r4 = 0x0
    1520:	79 89 00 00 00 00 00 00	r9 = *(u64 *)(r8 + 0x0)
    1521:	7b 31 00 00 00 00 00 00	*(u64 *)(r1 + 0x0) = r3
    1522:	55 04 02 00 01 00 00 00	if r4 != 0x1 goto +0x2 <.text+0x2e88>
    1523:	85 10 00 00 ff ff ff ff	call -0x1
    1524:	85 10 00 00 ff ff ff ff	call -0x1
    1525:	79 83 10 00 00 00 00 00	r3 = *(u64 *)(r8 + 0x10)
    1526:	79 34 00 00 00 00 00 00	r4 = *(u64 *)(r3 + 0x0)
    1527:	07 04 00 00 01 00 00 00	r4 += 0x1
    1528:	b7 05 00 00 01 00 00 00	r5 = 0x1
    1529:	15 04 01 00 00 00 00 00	if r4 == 0x0 goto +0x1 <.text+0x2eb8>
    1530:	b7 05 00 00 00 00 00 00	r5 = 0x0
    1531:	7b 43 00 00 00 00 00 00	*(u64 *)(r3 + 0x0) = r4
    1532:	55 05 01 00 01 00 00 00	if r5 != 0x1 goto +0x1 <.text+0x2ed0>
    1533:	05 00 f5 ff 00 00 00 00	goto -0xb <.text+0x2e78>
    1534:	79 84 18 00 00 00 00 00	r4 = *(u64 *)(r8 + 0x18)
    1535:	79 85 20 00 00 00 00 00	r5 = *(u64 *)(r8 + 0x20)
    1536:	71 80 28 00 00 00 00 00	w0 = *(u8 *)(r8 + 0x28)
    1537:	71 82 29 00 00 00 00 00	w2 = *(u8 *)(r8 + 0x29)
    1538:	71 88 2a 00 00 00 00 00	w8 = *(u8 *)(r8 + 0x2a)
    1539:	73 8a d2 ff 00 00 00 00	*(u8 *)(r10 - 0x2e) = w8
    1540:	73 2a d1 ff 00 00 00 00	*(u8 *)(r10 - 0x2f) = w2
    1541:	73 0a d0 ff 00 00 00 00	*(u8 *)(r10 - 0x30) = w0
    1542:	7b 5a c8 ff 00 00 00 00	*(u64 *)(r10 - 0x38) = r5
    1543:	7b 4a c0 ff 00 00 00 00	*(u64 *)(r10 - 0x40) = r4
    1544:	7b 3a b8 ff 00 00 00 00	*(u64 *)(r10 - 0x48) = r3
    1545:	7b 1a b0 ff 00 00 00 00	*(u64 *)(r10 - 0x50) = r1
    1546:	7b 9a a8 ff 00 00 00 00	*(u64 *)(r10 - 0x58) = r9
    1547:	bf a1 00 00 00 00 00 00	r1 = r10
    1548:	07 01 00 00 d8 ff ff ff	r1 += -0x28
    1549:	bf a2 00 00 00 00 00 00	r2 = r10
    1550:	07 02 00 00 a8 ff ff ff	r2 += -0x58
    1551:	85 10 00 00 13 b3 00 00	call 0xb313
    1552:	61 a1 d8 ff 00 00 00 00	w1 = *(u32 *)(r10 - 0x28)
    1553:	55 01 18 00 18 00 00 00	if r1 != 0x18 goto +0x18 <.text+0x3030>
    1554:	79 a8 e8 ff 00 00 00 00	r8 = *(u64 *)(r10 - 0x18)
    1555:	79 a1 e0 ff 00 00 00 00	r1 = *(u64 *)(r10 - 0x20)
    1556:	79 12 00 00 00 00 00 00	r2 = *(u64 *)(r1 + 0x0)
    1557:	79 11 08 00 00 00 00 00	r1 = *(u64 *)(r1 + 0x8)
    1558:	b7 03 00 00 00 00 00 00	r3 = 0x0
    1559:	7b 3a e8 ff 00 00 00 00	*(u64 *)(r10 - 0x18) = r3
    1560:	7b 1a e0 ff 00 00 00 00	*(u64 *)(r10 - 0x20) = r1
    1561:	7b 2a d8 ff 00 00 00 00	*(u64 *)(r10 - 0x28) = r2
    1562:	bf a1 00 00 00 00 00 00	r1 = r10
    1563:	07 01 00 00 d8 ff ff ff	r1 += -0x28
    1564:	18 02 00 00 6b 30 07 00 00 00 00 00 00 00 00 00	r2 = 0x7306b ll
    1566:	b7 03 00 00 08 00 00 00	r3 = 0x8
    1567:	85 10 00 00 27 a7 00 00	call 0xa727
    1568:	15 00 1a 00 00 00 00 00	if r0 == 0x0 goto +0x1a <.text+0x30b8>
    1569:	bf 01 00 00 00 00 00 00	r1 = r0
    1570:	57 01 00 00 03 00 00 00	r1 &= 0x3
    1571:	bf 12 00 00 00 00 00 00	r2 = r1
    1572:	07 02 00 00 fe ff ff ff	r2 += -0x2
    1573:	b7 03 00 00 02 00 00 00	r3 = 0x2
    1574:	b7 09 00 00 02 00 00 00	r9 = 0x2
    1575:	2d 23 33 00 00 00 00 00	if r3 > r2 goto +0x33 <.text+0x31b8>
    1576:	15 01 32 00 00 00 00 00	if r1 == 0x0 goto +0x32 <.text+0x31b8>
    1577:	05 00 2d 00 00 00 00 00	goto +0x2d <.text+0x3198>
    1578:	61 a2 dc ff 00 00 00 00	w2 = *(u32 *)(r10 - 0x24)
    1579:	79 a3 e0 ff 00 00 00 00	r3 = *(u64 *)(r10 - 0x20)
    1580:	79 a4 e8 ff 00 00 00 00	r4 = *(u64 *)(r10 - 0x18)
    1581:	79 a5 f0 ff 00 00 00 00	r5 = *(u64 *)(r10 - 0x10)
    1582:	7b 5a f0 ff 00 00 00 00	*(u64 *)(r10 - 0x10) = r5
    1583:	7b 4a e8 ff 00 00 00 00	*(u64 *)(r10 - 0x18) = r4
    1584:	7b 3a e0 ff 00 00 00 00	*(u64 *)(r10 - 0x20) = r3
    1585:	63 2a dc ff 00 00 00 00	*(u32 *)(r10 - 0x24) = w2
    1586:	63 1a d8 ff 00 00 00 00	*(u32 *)(r10 - 0x28) = w1
    1587:	bf a1 00 00 00 00 00 00	r1 = r10
    1588:	07 01 00 00 98 ff ff ff	r1 += -0x68
    1589:	bf a2 00 00 00 00 00 00	r2 = r10
    1590:	07 02 00 00 d8 ff ff ff	r2 += -0x28
    1591:	85 10 00 00 e0 a7 00 00	call 0xa7e0
    1592:	79 a1 a0 ff 00 00 00 00	r1 = *(u64 *)(r10 - 0x60)
    1593:	79 a2 98 ff 00 00 00 00	r2 = *(u64 *)(r10 - 0x68)
    1594:	05 00 3c 00 00 00 00 00	goto +0x3c <.text+0x3298>
    1595:	bf 72 00 00 00 00 00 00	r2 = r7
    1596:	07 02 00 00 08 00 00 00	r2 += 0x8
    1597:	bf a1 00 00 00 00 00 00	r1 = r10
    1598:	07 01 00 00 d8 ff ff ff	r1 += -0x28
    1599:	b7 03 00 00 20 00 00 00	r3 = 0x20
    1600:	85 10 00 00 06 a7 00 00	call 0xa706
    1601:	b7 09 00 00 02 00 00 00	r9 = 0x2
    1602:	55 00 0d 00 00 00 00 00	if r0 != 0x0 goto +0xd <.text+0x3160>
    1603:	61 71 28 00 00 00 00 00	w1 = *(u32 *)(r7 + 0x28)
    1604:	63 1a fc ff 00 00 00 00	*(u32 *)(r10 - 0x4) = w1
    1605:	bf a1 00 00 00 00 00 00	r1 = r10
    1606:	07 01 00 00 d8 ff ff ff	r1 += -0x28
    1607:	bf a2 00 00 00 00 00 00	r2 = r10
    1608:	07 02 00 00 fc ff ff ff	r2 += -0x4
    1609:	b7 03 00 00 04 00 00 00	r3 = 0x4
    1610:	85 10 00 00 fc a6 00 00	call 0xa6fc
    1611:	55 00 04 00 00 00 00 00	if r0 != 0x0 goto +0x4 <.text+0x3160>
    1612:	79 81 00 00 00 00 00 00	r1 = *(u64 *)(r8 + 0x0)
    1613:	07 01 00 00 01 00 00 00	r1 += 0x1
    1614:	7b 18 00 00 00 00 00 00	*(u64 *)(r8 + 0x0) = r1
    1615:	05 00 16 00 00 00 00 00	goto +0x16 <.text+0x3210>
    1616:	bf 01 00 00 00 00 00 00	r1 = r0
    1617:	57 01 00 00 03 00 00 00	r1 &= 0x3
    1618:	bf 12 00 00 00 00 00 00	r2 = r1
    1619:	07 02 00 00 fe ff ff ff	r2 += -0x2
    1620:	b7 03 00 00 02 00 00 00	r3 = 0x2
    1621:	2d 23 05 00 00 00 00 00	if r3 > r2 goto +0x5 <.text+0x31b8>
    1622:	15 01 04 00 00 00 00 00	if r1 == 0x0 goto +0x4 <.text+0x31b8>
    1623:	79 01 ff ff 00 00 00 00	r1 = *(u64 *)(r0 - 0x1)
    1624:	79 02 07 00 00 00 00 00	r2 = *(u64 *)(r0 + 0x7)
    1625:	79 22 00 00 00 00 00 00	r2 = *(u64 *)(r2 + 0x0)
    1626:	8d 00 00 00 02 00 00 00	callx r0
    1627:	bf a1 00 00 00 00 00 00	r1 = r10
    1628:	07 01 00 00 88 ff ff ff	r1 += -0x78
    1629:	b7 02 00 00 bc 0b 00 00	r2 = 0xbbc
    1630:	85 10 00 00 18 ae 00 00	call 0xae18
    1631:	79 a1 90 ff 00 00 00 00	r1 = *(u64 *)(r10 - 0x70)
    1632:	79 a2 88 ff 00 00 00 00	r2 = *(u64 *)(r10 - 0x78)
    1633:	79 83 00 00 00 00 00 00	r3 = *(u64 *)(r8 + 0x0)
    1634:	07 03 00 00 01 00 00 00	r3 += 0x1
    1635:	7b 38 00 00 00 00 00 00	*(u64 *)(r8 + 0x0) = r3
    1636:	15 02 01 00 02 00 00 00	if r2 == 0x2 goto +0x1 <.text+0x3210>
    1637:	05 00 11 00 00 00 00 00	goto +0x11 <.text+0x3298>
    1638:	79 a1 b8 ff 00 00 00 00	r1 = *(u64 *)(r10 - 0x48)
    1639:	79 a2 b0 ff 00 00 00 00	r2 = *(u64 *)(r10 - 0x50)
    1640:	79 23 00 00 00 00 00 00	r3 = *(u64 *)(r2 + 0x0)
    1641:	07 03 00 00 ff ff ff ff	r3 += -0x1
    1642:	7b 32 00 00 00 00 00 00	*(u64 *)(r2 + 0x0) = r3
    1643:	55 03 03 00 00 00 00 00	if r3 != 0x0 goto +0x3 <.text+0x3258>
    1644:	79 23 08 00 00 00 00 00	r3 = *(u64 *)(r2 + 0x8)
    1645:	07 03 00 00 ff ff ff ff	r3 += -0x1
    1646:	7b 32 08 00 00 00 00 00	*(u64 *)(r2 + 0x8) = r3
    1647:	79 12 00 00 00 00 00 00	r2 = *(u64 *)(r1 + 0x0)
    1648:	07 02 00 00 ff ff ff ff	r2 += -0x1
    1649:	7b 21 00 00 00 00 00 00	*(u64 *)(r1 + 0x0) = r2
    1650:	55 02 03 00 00 00 00 00	if r2 != 0x0 goto +0x3 <.text+0x3290>
    1651:	79 12 08 00 00 00 00 00	r2 = *(u64 *)(r1 + 0x8)
    1652:	07 02 00 00 ff ff ff ff	r2 += -0x1
    1653:	7b 21 08 00 00 00 00 00	*(u64 *)(r1 + 0x8) = r2
    1654:	05 00 11 00 00 00 00 00	goto +0x11 <.text+0x3320>
    1655:	79 a3 b8 ff 00 00 00 00	r3 = *(u64 *)(r10 - 0x48)
    1656:	79 a4 b0 ff 00 00 00 00	r4 = *(u64 *)(r10 - 0x50)
    1657:	79 45 00 00 00 00 00 00	r5 = *(u64 *)(r4 + 0x0)
    1658:	07 05 00 00 ff ff ff ff	r5 += -0x1
    1659:	7b 54 00 00 00 00 00 00	*(u64 *)(r4 + 0x0) = r5
    1660:	55 05 03 00 00 00 00 00	if r5 != 0x0 goto +0x3 <.text+0x32e0>
    1661:	79 45 08 00 00 00 00 00	r5 = *(u64 *)(r4 + 0x8)
    1662:	07 05 00 00 ff ff ff ff	r5 += -0x1
    1663:	7b 54 08 00 00 00 00 00	*(u64 *)(r4 + 0x8) = r5
    1664:	79 34 00 00 00 00 00 00	r4 = *(u64 *)(r3 + 0x0)
    1665:	07 04 00 00 ff ff ff ff	r4 += -0x1
    1666:	7b 43 00 00 00 00 00 00	*(u64 *)(r3 + 0x0) = r4
    1667:	55 04 03 00 00 00 00 00	if r4 != 0x0 goto +0x3 <.text+0x3318>
    1668:	79 34 08 00 00 00 00 00	r4 = *(u64 *)(r3 + 0x8)
    1669:	07 04 00 00 ff ff ff ff	r4 += -0x1
    1670:	7b 43 08 00 00 00 00 00	*(u64 *)(r3 + 0x8) = r4
    1671:	bf 29 00 00 00 00 00 00	r9 = r2
    1672:	7b 16 08 00 00 00 00 00	*(u64 *)(r6 + 0x8) = r1
    1673:	7b 96 00 00 00 00 00 00	*(u64 *)(r6 + 0x0) = r9
    1674:	95 00 00 00 00 00 00 00	exit
    1675:	bf 27 00 00 00 00 00 00	r7 = r2
    1676:	bf 16 00 00 00 00 00 00	r6 = r1
    1677:	79 78 18 00 00 00 00 00	r8 = *(u64 *)(r7 + 0x18)
    1678:	79 81 00 00 00 00 00 00	r1 = *(u64 *)(r8 + 0x0)
    1679:	15 01 02 00 00 00 00 00	if r1 == 0x0 goto +0x2 <.text+0x3370>
    1680:	b7 01 00 00 01 00 00 00	r1 = 0x1
    1681:	05 00 07 00 00 00 00 00	goto +0x7 <.text+0x33a8>
    1682:	79 81 08 00 00 00 00 00	r1 = *(u64 *)(r8 + 0x8)
    1683:	55 01 fc ff 00 00 00 00	if r1 != 0x0 goto -0x4 <.text+0x3360>
    1684:	79 81 10 00 00 00 00 00	r1 = *(u64 *)(r8 + 0x10)
    1685:	55 01 fa ff 00 00 00 00	if r1 != 0x0 goto -0x6 <.text+0x3360>
    1686:	b7 01 00 00 00 00 00 00	r1 = 0x0
    1687:	79 82 18 00 00 00 00 00	r2 = *(u64 *)(r8 + 0x18)
    1688:	55 02 f7 ff 00 00 00 00	if r2 != 0x0 goto -0x9 <.text+0x3360>
    1689:	55 01 03 00 00 00 00 00	if r1 != 0x0 goto +0x3 <.text+0x33c8>
    1690:	bf 71 00 00 00 00 00 00	r1 = r7
    1691:	85 10 00 00 40 b2 00 00	call 0xb240
    1692:	15 00 64 00 00 00 00 00	if r0 == 0x0 goto +0x64 <.text+0x36e8>
    1693:	79 81 00 00 00 00 00 00	r1 = *(u64 *)(r8 + 0x0)
    1694:	18 02 00 00 1c ce 98 98 00 00 00 00 35 6d eb 3f	r2 = 0x3feb6d359898ce1c ll
    1696:	1d 21 24 00 00 00 00 00	if r1 == r2 goto +0x24 <.text+0x3508>
    1697:	b7 01 00 00 01 00 00 00	r1 = 0x1
    1698:	15 01 31 00 00 00 00 00	if r1 == 0x0 goto +0x31 <.text+0x3580>
    1699:	bf a1 00 00 00 00 00 00	r1 = r10
    1700:	07 01 00 00 50 fc ff ff	r1 += -0x3b0
    1701:	b7 02 00 00 bf 0b 00 00	r2 = 0xbbf
    1702:	85 10 00 00 d0 ad 00 00	call 0xadd0
    1703:	79 a3 58 fc 00 00 00 00	r3 = *(u64 *)(r10 - 0x3a8)
    1704:	79 a2 50 fc 00 00 00 00	r2 = *(u64 *)(r10 - 0x3b0)
    1705:	79 81 18 00 00 00 00 00	r1 = *(u64 *)(r8 + 0x18)
    1706:	7b 1a 88 fc 00 00 00 00	*(u64 *)(r10 - 0x378) = r1
    1707:	79 81 10 00 00 00 00 00	r1 = *(u64 *)(r8 + 0x10)
    1708:	7b 1a 80 fc 00 00 00 00	*(u64 *)(r10 - 0x380) = r1
    1709:	79 81 08 00 00 00 00 00	r1 = *(u64 *)(r8 + 0x8)
    1710:	7b 1a 78 fc 00 00 00 00	*(u64 *)(r10 - 0x388) = r1
    1711:	79 81 00 00 00 00 00 00	r1 = *(u64 *)(r8 + 0x0)
    1712:	7b 1a 70 fc 00 00 00 00	*(u64 *)(r10 - 0x390) = r1
    1713:	18 01 00 00 1c ce 98 98 00 00 00 00 35 6d eb 3f	r1 = 0x3feb6d359898ce1c ll
    1715:	7b 1a 90 fc 00 00 00 00	*(u64 *)(r10 - 0x370) = r1
    1716:	18 01 00 00 2c 34 8d ca 00 00 00 00 a2 40 4f 55	r1 = 0x554f40a2ca8d342c ll
    1718:	7b 1a 98 fc 00 00 00 00	*(u64 *)(r10 - 0x368) = r1
    1719:	18 01 00 00 8e 90 ec 35 00 00 00 00 ca e3 39 da	r1 = -0x25c61c35ca136f72 ll
    1721:	7b 1a a0 fc 00 00 00 00	*(u64 *)(r10 - 0x360) = r1
    1722:	18 01 00 00 c6 55 04 2d 00 00 00 00 64 03 57 af	r1 = -0x50a8fc9bd2fbaa3a ll
    1724:	7b 1a a8 fc 00 00 00 00	*(u64 *)(r10 - 0x358) = r1
    1725:	bf a1 00 00 00 00 00 00	r1 = r10
    1726:	07 01 00 00 40 fc ff ff	r1 += -0x3c0
    1727:	bf a4 00 00 00 00 00 00	r4 = r10
    1728:	07 04 00 00 70 fc ff ff	r4 += -0x390
    1729:	85 10 00 00 77 a7 00 00	call 0xa777
    1730:	79 a1 40 fc 00 00 00 00	r1 = *(u64 *)(r10 - 0x3c0)
    1731:	79 a2 48 fc 00 00 00 00	r2 = *(u64 *)(r10 - 0x3b8)
    1732:	05 00 42 00 00 00 00 00	goto +0x42 <.text+0x3718>
    1733:	79 81 08 00 00 00 00 00	r1 = *(u64 *)(r8 + 0x8)
    1734:	18 02 00 00 2c 34 8d ca 00 00 00 00 a2 40 4f 55	r2 = 0x554f40a2ca8d342c ll
    1736:	5d 21 d8 ff 00 00 00 00	if r1 != r2 goto -0x28 <.text+0x33e8>
    1737:	79 81 10 00 00 00 00 00	r1 = *(u64 *)(r8 + 0x10)
    1738:	18 02 00 00 8e 90 ec 35 00 00 00 00 ca e3 39 da	r2 = -0x25c61c35ca136f72 ll
    1740:	5d 21 d4 ff 00 00 00 00	if r1 != r2 goto -0x2c <.text+0x33e8>
    1741:	b7 01 00 00 00 00 00 00	r1 = 0x0
    1742:	79 82 18 00 00 00 00 00	r2 = *(u64 *)(r8 + 0x18)
    1743:	18 03 00 00 c6 55 04 2d 00 00 00 00 64 03 57 af	r3 = -0x50a8fc9bd2fbaa3a ll
    1745:	5d 32 cf ff 00 00 00 00	if r2 != r3 goto -0x31 <.text+0x33e8>
    1746:	15 01 01 00 00 00 00 00	if r1 == 0x0 goto +0x1 <.text+0x3580>
    1747:	05 00 cf ff 00 00 00 00	goto -0x31 <.text+0x33f8>
    1748:	bf a1 00 00 00 00 00 00	r1 = r10
    1749:	07 01 00 00 70 fc ff ff	r1 += -0x390
    1750:	bf 72 00 00 00 00 00 00	r2 = r7
    1751:	85 10 00 00 3b b2 00 00	call 0xb23b
    1752:	61 a1 70 fc 00 00 00 00	w1 = *(u32 *)(r10 - 0x390)
    1753:	15 01 01 00 18 00 00 00	if r1 == 0x18 goto +0x1 <.text+0x35b8>
    1754:	05 00 15 00 00 00 00 00	goto +0x15 <.text+0x3660>
    1755:	79 a8 80 fc 00 00 00 00	r8 = *(u64 *)(r10 - 0x380)
    1756:	79 a1 78 fc 00 00 00 00	r1 = *(u64 *)(r10 - 0x388)
    1757:	79 12 00 00 00 00 00 00	r2 = *(u64 *)(r1 + 0x0)
    1758:	79 11 08 00 00 00 00 00	r1 = *(u64 *)(r1 + 0x8)
    1759:	7b 1a 68 fc 00 00 00 00	*(u64 *)(r10 - 0x398) = r1
    1760:	7b 2a 60 fc 00 00 00 00	*(u64 *)(r10 - 0x3a0) = r2
    1761:	bf a1 00 00 00 00 00 00	r1 = r10
    1762:	07 01 00 00 70 fc ff ff	r1 += -0x390
    1763:	bf a2 00 00 00 00 00 00	r2 = r10
    1764:	07 02 00 00 60 fc ff ff	r2 += -0x3a0
    1765:	85 10 00 00 a8 75 00 00	call 0x75a8
    1766:	79 a3 70 fc 00 00 00 00	r3 = *(u64 *)(r10 - 0x390)
    1767:	71 a9 fd ff 00 00 00 00	w9 = *(u8 *)(r10 - 0x3)
    1768:	15 09 01 00 02 00 00 00	if r9 == 0x2 goto +0x1 <.text+0x3630>
    1769:	05 00 22 00 00 00 00 00	goto +0x22 <.text+0x3740>
    1770:	79 a1 78 fc 00 00 00 00	r1 = *(u64 *)(r10 - 0x388)
    1771:	b7 02 00 00 02 00 00 00	r2 = 0x2
    1772:	73 26 95 03 00 00 00 00	*(u8 *)(r6 + 0x395) = w2
    1773:	7b 16 08 00 00 00 00 00	*(u64 *)(r6 + 0x8) = r1
    1774:	7b 36 00 00 00 00 00 00	*(u64 *)(r6 + 0x0) = r3
    1775:	05 00 2d 00 00 00 00 00	goto +0x2d <.text+0x37c8>
    1776:	61 a2 74 fc 00 00 00 00	w2 = *(u32 *)(r10 - 0x38c)
    1777:	79 a3 78 fc 00 00 00 00	r3 = *(u64 *)(r10 - 0x388)
    1778:	79 a4 80 fc 00 00 00 00	r4 = *(u64 *)(r10 - 0x380)
    1779:	79 a5 88 fc 00 00 00 00	r5 = *(u64 *)(r10 - 0x378)
    1780:	7b 5a 88 fc 00 00 00 00	*(u64 *)(r10 - 0x378) = r5
    1781:	7b 4a 80 fc 00 00 00 00	*(u64 *)(r10 - 0x380) = r4
    1782:	7b 3a 78 fc 00 00 00 00	*(u64 *)(r10 - 0x388) = r3
    1783:	63 2a 74 fc 00 00 00 00	*(u32 *)(r10 - 0x38c) = w2
    1784:	63 1a 70 fc 00 00 00 00	*(u32 *)(r10 - 0x390) = w1
    1785:	bf a1 00 00 00 00 00 00	r1 = r10
    1786:	07 01 00 00 30 fc ff ff	r1 += -0x3d0
    1787:	bf a2 00 00 00 00 00 00	r2 = r10
    1788:	07 02 00 00 70 fc ff ff	r2 += -0x390
    1789:	85 10 00 00 1a a7 00 00	call 0xa71a
    1790:	79 a1 30 fc 00 00 00 00	r1 = *(u64 *)(r10 - 0x3d0)
    1791:	79 a2 38 fc 00 00 00 00	r2 = *(u64 *)(r10 - 0x3c8)
    1792:	05 00 06 00 00 00 00 00	goto +0x6 <.text+0x3718>
    1793:	bf a1 00 00 00 00 00 00	r1 = r10
    1794:	07 01 00 00 20 fc ff ff	r1 += -0x3e0
    1795:	b7 02 00 00 c4 0b 00 00	r2 = 0xbc4
    1796:	85 10 00 00 72 ad 00 00	call 0xad72
    1797:	79 a1 20 fc 00 00 00 00	r1 = *(u64 *)(r10 - 0x3e0)
    1798:	79 a2 28 fc 00 00 00 00	r2 = *(u64 *)(r10 - 0x3d8)
    1799:	b7 03 00 00 02 00 00 00	r3 = 0x2
    1800:	73 36 95 03 00 00 00 00	*(u8 *)(r6 + 0x395) = w3
    1801:	7b 26 08 00 00 00 00 00	*(u64 *)(r6 + 0x8) = r2
    1802:	7b 16 00 00 00 00 00 00	*(u64 *)(r6 + 0x0) = r1
    1803:	95 00 00 00 00 00 00 00	exit
    1804:	79 a1 78 fc 00 00 00 00	r1 = *(u64 *)(r10 - 0x388)
    1805:	7b 1a 18 fc 00 00 00 00	*(u64 *)(r10 - 0x3e8) = r1
    1806:	bf 61 00 00 00 00 00 00	r1 = r6
    1807:	07 01 00 00 18 00 00 00	r1 += 0x18
    1808:	bf a2 00 00 00 00 00 00	r2 = r10
    1809:	07 02 00 00 80 fc ff ff	r2 += -0x380
    1810:	7b 3a 10 fc 00 00 00 00	*(u64 *)(r10 - 0x3f0) = r3
    1811:	b7 03 00 00 7d 03 00 00	r3 = 0x37d
    1812:	85 10 00 00 ab d0 00 00	call 0xd0ab
    1813:	69 a1 fe ff 00 00 00 00	w1 = *(u16 *)(r10 - 0x2)
    1814:	6b 16 96 03 00 00 00 00	*(u16 *)(r6 + 0x396) = w1
    1815:	73 96 95 03 00 00 00 00	*(u8 *)(r6 + 0x395) = w9
    1816:	79 a1 18 fc 00 00 00 00	r1 = *(u64 *)(r10 - 0x3e8)
    1817:	7b 16 10 00 00 00 00 00	*(u64 *)(r6 + 0x10) = r1
    1818:	79 a1 10 fc 00 00 00 00	r1 = *(u64 *)(r10 - 0x3f0)
    1819:	7b 16 08 00 00 00 00 00	*(u64 *)(r6 + 0x8) = r1
    1820:	7b 76 00 00 00 00 00 00	*(u64 *)(r6 + 0x0) = r7
    1821:	79 81 00 00 00 00 00 00	r1 = *(u64 *)(r8 + 0x0)
    1822:	07 01 00 00 ff ff ff ff	r1 += -0x1
    1823:	7b 18 00 00 00 00 00 00	*(u64 *)(r8 + 0x0) = r1
    1824:	05 00 ea ff 00 00 00 00	goto -0x16 <.text+0x3738>
    1825:	bf 27 00 00 00 00 00 00	r7 = r2
    1826:	bf 16 00 00 00 00 00 00	r6 = r1
    1827:	79 78 18 00 00 00 00 00	r8 = *(u64 *)(r7 + 0x18)
    1828:	79 81 00 00 00 00 00 00	r1 = *(u64 *)(r8 + 0x0)
    1829:	15 01 02 00 00 00 00 00	if r1 == 0x0 goto +0x2 <.text+0x3820>
    1830:	b7 01 00 00 01 00 00 00	r1 = 0x1
    1831:	05 00 07 00 00 00 00 00	goto +0x7 <.text+0x3858>
    1832:	79 81 08 00 00 00 00 00	r1 = *(u64 *)(r8 + 0x8)
    1833:	55 01 fc ff 00 00 00 00	if r1 != 0x0 goto -0x4 <.text+0x3810>
    1834:	79 81 10 00 00 00 00 00	r1 = *(u64 *)(r8 + 0x10)
    1835:	55 01 fa ff 00 00 00 00	if r1 != 0x0 goto -0x6 <.text+0x3810>
    1836:	b7 01 00 00 00 00 00 00	r1 = 0x0
    1837:	79 82 18 00 00 00 00 00	r2 = *(u64 *)(r8 + 0x18)
    1838:	55 02 f7 ff 00 00 00 00	if r2 != 0x0 goto -0x9 <.text+0x3810>
    1839:	55 01 03 00 00 00 00 00	if r1 != 0x0 goto +0x3 <.text+0x3878>
    1840:	bf 71 00 00 00 00 00 00	r1 = r7
    1841:	85 10 00 00 aa b1 00 00	call 0xb1aa
    1842:	15 00 64 00 00 00 00 00	if r0 == 0x0 goto +0x64 <.text+0x3b98>
    1843:	79 81 00 00 00 00 00 00	r1 = *(u64 *)(r8 + 0x0)
    1844:	18 02 00 00 06 dd f6 e1 00 00 00 00 d7 65 a1 93	r2 = -0x6c5e9a281e0922fa ll
    1846:	1d 21 24 00 00 00 00 00	if r1 == r2 goto +0x24 <.text+0x39b8>
    1847:	b7 01 00 00 01 00 00 00	r1 = 0x1
    1848:	15 01 31 00 00 00 00 00	if r1 == 0x0 goto +0x31 <.text+0x3a30>
    1849:	bf a1 00 00 00 00 00 00	r1 = r10
    1850:	07 01 00 00 30 ff ff ff	r1 += -0xd0
    1851:	b7 02 00 00 bf 0b 00 00	r2 = 0xbbf
    1852:	85 10 00 00 3a ad 00 00	call 0xad3a
    1853:	79 a3 38 ff 00 00 00 00	r3 = *(u64 *)(r10 - 0xc8)
    1854:	79 a2 30 ff 00 00 00 00	r2 = *(u64 *)(r10 - 0xd0)
    1855:	79 81 18 00 00 00 00 00	r1 = *(u64 *)(r8 + 0x18)
    1856:	7b 1a 68 ff 00 00 00 00	*(u64 *)(r10 - 0x98) = r1
    1857:	79 81 10 00 00 00 00 00	r1 = *(u64 *)(r8 + 0x10)
    1858:	7b 1a 60 ff 00 00 00 00	*(u64 *)(r10 - 0xa0) = r1
    1859:	79 81 08 00 00 00 00 00	r1 = *(u64 *)(r8 + 0x8)
    1860:	7b 1a 58 ff 00 00 00 00	*(u64 *)(r10 - 0xa8) = r1
    1861:	79 81 00 00 00 00 00 00	r1 = *(u64 *)(r8 + 0x0)
    1862:	7b 1a 50 ff 00 00 00 00	*(u64 *)(r10 - 0xb0) = r1
    1863:	18 01 00 00 06 dd f6 e1 00 00 00 00 d7 65 a1 93	r1 = -0x6c5e9a281e0922fa ll
    1865:	7b 1a 70 ff 00 00 00 00	*(u64 *)(r10 - 0x90) = r1
    1866:	18 01 00 00 d9 cb e1 46 00 00 00 00 ce eb 79 ac	r1 = -0x53861431b91e3427 ll
    1868:	7b 1a 78 ff 00 00 00 00	*(u64 *)(r10 - 0x88) = r1
    1869:	18 01 00 00 1c b4 85 ed 00 00 00 00 5f 5b 37 91	r1 = -0x6ec8a4a0127a4be4 ll
    1871:	7b 1a 80 ff 00 00 00 00	*(u64 *)(r10 - 0x80) = r1
    1872:	18 01 00 00 3a 8c f5 85 00 00 00 00 7e ff 00 a9	r1 = -0x56ff00817a0a73c6 ll
    1874:	7b 1a 88 ff 00 00 00 00	*(u64 *)(r10 - 0x78) = r1
    1875:	bf a1 00 00 00 00 00 00	r1 = r10
    1876:	07 01 00 00 20 ff ff ff	r1 += -0xe0
    1877:	bf a4 00 00 00 00 00 00	r4 = r10
    1878:	07 04 00 00 50 ff ff ff	r4 += -0xb0
    1879:	85 10 00 00 e1 a6 00 00	call 0xa6e1
    1880:	79 a1 20 ff 00 00 00 00	r1 = *(u64 *)(r10 - 0xe0)
    1881:	79 a2 28 ff 00 00 00 00	r2 = *(u64 *)(r10 - 0xd8)
    1882:	05 00 42 00 00 00 00 00	goto +0x42 <.text+0x3bc8>
    1883:	79 81 08 00 00 00 00 00	r1 = *(u64 *)(r8 + 0x8)
    1884:	18 02 00 00 d9 cb e1 46 00 00 00 00 ce eb 79 ac	r2 = -0x53861431b91e3427 ll
    1886:	5d 21 d8 ff 00 00 00 00	if r1 != r2 goto -0x28 <.text+0x3898>
    1887:	79 81 10 00 00 00 00 00	r1 = *(u64 *)(r8 + 0x10)
    1888:	18 02 00 00 1c b4 85 ed 00 00 00 00 5f 5b 37 91	r2 = -0x6ec8a4a0127a4be4 ll
    1890:	5d 21 d4 ff 00 00 00 00	if r1 != r2 goto -0x2c <.text+0x3898>
    1891:	b7 01 00 00 00 00 00 00	r1 = 0x0
    1892:	79 82 18 00 00 00 00 00	r2 = *(u64 *)(r8 + 0x18)
    1893:	18 03 00 00 3a 8c f5 85 00 00 00 00 7e ff 00 a9	r3 = -0x56ff00817a0a73c6 ll
    1895:	5d 32 cf ff 00 00 00 00	if r2 != r3 goto -0x31 <.text+0x3898>
    1896:	15 01 01 00 00 00 00 00	if r1 == 0x0 goto +0x1 <.text+0x3a30>
    1897:	05 00 cf ff 00 00 00 00	goto -0x31 <.text+0x38a8>
    1898:	bf a1 00 00 00 00 00 00	r1 = r10
    1899:	07 01 00 00 50 ff ff ff	r1 += -0xb0
    1900:	bf 72 00 00 00 00 00 00	r2 = r7
    1901:	85 10 00 00 a5 b1 00 00	call 0xb1a5
    1902:	61 a1 50 ff 00 00 00 00	w1 = *(u32 *)(r10 - 0xb0)
    1903:	15 01 01 00 18 00 00 00	if r1 == 0x18 goto +0x1 <.text+0x3a68>
    1904:	05 00 15 00 00 00 00 00	goto +0x15 <.text+0x3b10>
    1905:	79 a8 60 ff 00 00 00 00	r8 = *(u64 *)(r10 - 0xa0)
    1906:	79 a1 58 ff 00 00 00 00	r1 = *(u64 *)(r10 - 0xa8)
    1907:	79 12 00 00 00 00 00 00	r2 = *(u64 *)(r1 + 0x0)
    1908:	79 11 08 00 00 00 00 00	r1 = *(u64 *)(r1 + 0x8)
    1909:	7b 1a 48 ff 00 00 00 00	*(u64 *)(r10 - 0xb8) = r1
    1910:	7b 2a 40 ff 00 00 00 00	*(u64 *)(r10 - 0xc0) = r2
    1911:	bf a1 00 00 00 00 00 00	r1 = r10
    1912:	07 01 00 00 50 ff ff ff	r1 += -0xb0
    1913:	bf a2 00 00 00 00 00 00	r2 = r10
    1914:	07 02 00 00 40 ff ff ff	r2 += -0xc0
    1915:	85 10 00 00 06 9c 00 00	call 0x9c06
    1916:	79 a3 50 ff 00 00 00 00	r3 = *(u64 *)(r10 - 0xb0)
    1917:	61 a9 d8 ff 00 00 00 00	w9 = *(u32 *)(r10 - 0x28)
    1918:	15 09 01 00 02 00 00 00	if r9 == 0x2 goto +0x1 <.text+0x3ae0>
    1919:	05 00 22 00 00 00 00 00	goto +0x22 <.text+0x3bf0>
    1920:	79 a1 58 ff 00 00 00 00	r1 = *(u64 *)(r10 - 0xa8)
    1921:	b7 02 00 00 02 00 00 00	r2 = 0x2
    1922:	63 26 90 00 00 00 00 00	*(u32 *)(r6 + 0x90) = w2
    1923:	7b 16 08 00 00 00 00 00	*(u64 *)(r6 + 0x8) = r1
    1924:	7b 36 00 00 00 00 00 00	*(u64 *)(r6 + 0x0) = r3
    1925:	05 00 31 00 00 00 00 00	goto +0x31 <.text+0x3c98>
    1926:	61 a2 54 ff 00 00 00 00	w2 = *(u32 *)(r10 - 0xac)
    1927:	79 a3 58 ff 00 00 00 00	r3 = *(u64 *)(r10 - 0xa8)
    1928:	79 a4 60 ff 00 00 00 00	r4 = *(u64 *)(r10 - 0xa0)
    1929:	79 a5 68 ff 00 00 00 00	r5 = *(u64 *)(r10 - 0x98)
    1930:	7b 5a 68 ff 00 00 00 00	*(u64 *)(r10 - 0x98) = r5
    1931:	7b 4a 60 ff 00 00 00 00	*(u64 *)(r10 - 0xa0) = r4
    1932:	7b 3a 58 ff 00 00 00 00	*(u64 *)(r10 - 0xa8) = r3
    1933:	63 2a 54 ff 00 00 00 00	*(u32 *)(r10 - 0xac) = w2
    1934:	63 1a 50 ff 00 00 00 00	*(u32 *)(r10 - 0xb0) = w1
    1935:	bf a1 00 00 00 00 00 00	r1 = r10
    1936:	07 01 00 00 10 ff ff ff	r1 += -0xf0
    1937:	bf a2 00 00 00 00 00 00	r2 = r10
    1938:	07 02 00 00 50 ff ff ff	r2 += -0xb0
    1939:	85 10 00 00 84 a6 00 00	call 0xa684
    1940:	79 a1 10 ff 00 00 00 00	r1 = *(u64 *)(r10 - 0xf0)
    1941:	79 a2 18 ff 00 00 00 00	r2 = *(u64 *)(r10 - 0xe8)
    1942:	05 00 06 00 00 00 00 00	goto +0x6 <.text+0x3bc8>
    1943:	bf a1 00 00 00 00 00 00	r1 = r10
    1944:	07 01 00 00 00 ff ff ff	r1 += -0x100
    1945:	b7 02 00 00 c4 0b 00 00	r2 = 0xbc4
    1946:	85 10 00 00 dc ac 00 00	call 0xacdc
    1947:	79 a1 00 ff 00 00 00 00	r1 = *(u64 *)(r10 - 0x100)
    1948:	79 a2 08 ff 00 00 00 00	r2 = *(u64 *)(r10 - 0xf8)
    1949:	b7 03 00 00 02 00 00 00	r3 = 0x2
    1950:	63 36 90 00 00 00 00 00	*(u32 *)(r6 + 0x90) = w3
    1951:	7b 26 08 00 00 00 00 00	*(u64 *)(r6 + 0x8) = r2
    1952:	7b 16 00 00 00 00 00 00	*(u64 *)(r6 + 0x0) = r1
    1953:	95 00 00 00 00 00 00 00	exit
    1954:	79 a1 58 ff 00 00 00 00	r1 = *(u64 *)(r10 - 0xa8)
    1955:	7b 1a f8 fe 00 00 00 00	*(u64 *)(r10 - 0x108) = r1
    1956:	bf 61 00 00 00 00 00 00	r1 = r6
    1957:	07 01 00 00 18 00 00 00	r1 += 0x18
    1958:	bf a2 00 00 00 00 00 00	r2 = r10
    1959:	07 02 00 00 60 ff ff ff	r2 += -0xa0
    1960:	7b 3a f0 fe 00 00 00 00	*(u64 *)(r10 - 0x110) = r3
    1961:	b7 03 00 00 78 00 00 00	r3 = 0x78
    1962:	85 10 00 00 15 d0 00 00	call 0xd015
    1963:	bf 61 00 00 00 00 00 00	r1 = r6
    1964:	07 01 00 00 94 00 00 00	r1 += 0x94
    1965:	bf a2 00 00 00 00 00 00	r2 = r10
    1966:	07 02 00 00 dc ff ff ff	r2 += -0x24
    1967:	b7 03 00 00 24 00 00 00	r3 = 0x24
    1968:	85 10 00 00 0f d0 00 00	call 0xd00f
    1969:	63 96 90 00 00 00 00 00	*(u32 *)(r6 + 0x90) = w9
    1970:	79 a1 f8 fe 00 00 00 00	r1 = *(u64 *)(r10 - 0x108)
    1971:	7b 16 10 00 00 00 00 00	*(u64 *)(r6 + 0x10) = r1
    1972:	79 a1 f0 fe 00 00 00 00	r1 = *(u64 *)(r10 - 0x110)
    1973:	7b 16 08 00 00 00 00 00	*(u64 *)(r6 + 0x8) = r1
    1974:	7b 76 00 00 00 00 00 00	*(u64 *)(r6 + 0x0) = r7
    1975:	79 81 00 00 00 00 00 00	r1 = *(u64 *)(r8 + 0x0)
    1976:	07 01 00 00 ff ff ff ff	r1 += -0x1
    1977:	7b 18 00 00 00 00 00 00	*(u64 *)(r8 + 0x0) = r1
    1978:	05 00 e6 ff 00 00 00 00	goto -0x1a <.text+0x3be8>
    1979:	bf 27 00 00 00 00 00 00	r7 = r2
    1980:	bf 16 00 00 00 00 00 00	r6 = r1
    1981:	79 78 18 00 00 00 00 00	r8 = *(u64 *)(r7 + 0x18)
    1982:	79 81 00 00 00 00 00 00	r1 = *(u64 *)(r8 + 0x0)
    1983:	15 01 02 00 00 00 00 00	if r1 == 0x0 goto +0x2 <.text+0x3cf0>
    1984:	b7 01 00 00 01 00 00 00	r1 = 0x1
    1985:	05 00 07 00 00 00 00 00	goto +0x7 <.text+0x3d28>
    1986:	79 81 08 00 00 00 00 00	r1 = *(u64 *)(r8 + 0x8)
    1987:	55 01 fc ff 00 00 00 00	if r1 != 0x0 goto -0x4 <.text+0x3ce0>
    1988:	79 81 10 00 00 00 00 00	r1 = *(u64 *)(r8 + 0x10)
    1989:	55 01 fa ff 00 00 00 00	if r1 != 0x0 goto -0x6 <.text+0x3ce0>
    1990:	b7 01 00 00 00 00 00 00	r1 = 0x0
    1991:	79 82 18 00 00 00 00 00	r2 = *(u64 *)(r8 + 0x18)
    1992:	55 02 f7 ff 00 00 00 00	if r2 != 0x0 goto -0x9 <.text+0x3ce0>
    1993:	55 01 03 00 00 00 00 00	if r1 != 0x0 goto +0x3 <.text+0x3d48>
    1994:	bf 71 00 00 00 00 00 00	r1 = r7
    1995:	85 10 00 00 10 b1 00 00	call 0xb110
    1996:	15 00 63 00 00 00 00 00	if r0 == 0x0 goto +0x63 <.text+0x4060>
    1997:	79 81 00 00 00 00 00 00	r1 = *(u64 *)(r8 + 0x0)
    1998:	18 02 00 00 1c ce 98 98 00 00 00 00 35 6d eb 3f	r2 = 0x3feb6d359898ce1c ll
    2000:	1d 21 24 00 00 00 00 00	if r1 == r2 goto +0x24 <.text+0x3e88>
    2001:	b7 01 00 00 01 00 00 00	r1 = 0x1
    2002:	15 01 31 00 00 00 00 00	if r1 == 0x0 goto +0x31 <.text+0x3f00>
    2003:	bf a1 00 00 00 00 00 00	r1 = r10
    2004:	07 01 00 00 90 ff ff ff	r1 += -0x70
    2005:	b7 02 00 00 bf 0b 00 00	r2 = 0xbbf
    2006:	85 10 00 00 a0 ac 00 00	call 0xaca0
    2007:	79 a3 98 ff 00 00 00 00	r3 = *(u64 *)(r10 - 0x68)
    2008:	79 a2 90 ff 00 00 00 00	r2 = *(u64 *)(r10 - 0x70)
    2009:	79 81 18 00 00 00 00 00	r1 = *(u64 *)(r8 + 0x18)
    2010:	7b 1a b8 ff 00 00 00 00	*(u64 *)(r10 - 0x48) = r1
    2011:	79 81 10 00 00 00 00 00	r1 = *(u64 *)(r8 + 0x10)
    2012:	7b 1a b0 ff 00 00 00 00	*(u64 *)(r10 - 0x50) = r1
    2013:	79 81 08 00 00 00 00 00	r1 = *(u64 *)(r8 + 0x8)
    2014:	7b 1a a8 ff 00 00 00 00	*(u64 *)(r10 - 0x58) = r1
    2015:	79 81 00 00 00 00 00 00	r1 = *(u64 *)(r8 + 0x0)
    2016:	7b 1a a0 ff 00 00 00 00	*(u64 *)(r10 - 0x60) = r1
    2017:	18 01 00 00 1c ce 98 98 00 00 00 00 35 6d eb 3f	r1 = 0x3feb6d359898ce1c ll
    2019:	7b 1a c0 ff 00 00 00 00	*(u64 *)(r10 - 0x40) = r1
    2020:	18 01 00 00 2c 34 8d ca 00 00 00 00 a2 40 4f 55	r1 = 0x554f40a2ca8d342c ll
    2022:	7b 1a c8 ff 00 00 00 00	*(u64 *)(r10 - 0x38) = r1
    2023:	18 01 00 00 8e 90 ec 35 00 00 00 00 ca e3 39 da	r1 = -0x25c61c35ca136f72 ll
    2025:	7b 1a d0 ff 00 00 00 00	*(u64 *)(r10 - 0x30) = r1
    2026:	18 01 00 00 c6 55 04 2d 00 00 00 00 64 03 57 af	r1 = -0x50a8fc9bd2fbaa3a ll
    2028:	7b 1a d8 ff 00 00 00 00	*(u64 *)(r10 - 0x28) = r1
    2029:	bf a1 00 00 00 00 00 00	r1 = r10
    2030:	07 01 00 00 80 ff ff ff	r1 += -0x80
    2031:	bf a4 00 00 00 00 00 00	r4 = r10
    2032:	07 04 00 00 a0 ff ff ff	r4 += -0x60
    2033:	85 10 00 00 47 a6 00 00	call 0xa647
    2034:	79 a1 80 ff 00 00 00 00	r1 = *(u64 *)(r10 - 0x80)
    2035:	79 a2 88 ff 00 00 00 00	r2 = *(u64 *)(r10 - 0x78)
    2036:	05 00 41 00 00 00 00 00	goto +0x41 <.text+0x4090>
    2037:	79 81 08 00 00 00 00 00	r1 = *(u64 *)(r8 + 0x8)
    2038:	18 02 00 00 2c 34 8d ca 00 00 00 00 a2 40 4f 55	r2 = 0x554f40a2ca8d342c ll
    2040:	5d 21 d8 ff 00 00 00 00	if r1 != r2 goto -0x28 <.text+0x3d68>
    2041:	79 81 10 00 00 00 00 00	r1 = *(u64 *)(r8 + 0x10)
    2042:	18 02 00 00 8e 90 ec 35 00 00 00 00 ca e3 39 da	r2 = -0x25c61c35ca136f72 ll
    2044:	5d 21 d4 ff 00 00 00 00	if r1 != r2 goto -0x2c <.text+0x3d68>
    2045:	b7 01 00 00 00 00 00 00	r1 = 0x0
    2046:	79 82 18 00 00 00 00 00	r2 = *(u64 *)(r8 + 0x18)
    2047:	18 03 00 00 c6 55 04 2d 00 00 00 00 64 03 57 af	r3 = -0x50a8fc9bd2fbaa3a ll
    2049:	5d 32 cf ff 00 00 00 00	if r2 != r3 goto -0x31 <.text+0x3d68>
    2050:	15 01 01 00 00 00 00 00	if r1 == 0x0 goto +0x1 <.text+0x3f00>
    2051:	05 00 cf ff 00 00 00 00	goto -0x31 <.text+0x3d78>
    2052:	bf a1 00 00 00 00 00 00	r1 = r10
    2053:	07 01 00 00 a0 ff ff ff	r1 += -0x60
    2054:	bf 72 00 00 00 00 00 00	r2 = r7
    2055:	85 10 00 00 0b b1 00 00	call 0xb10b
    2056:	61 a1 a0 ff 00 00 00 00	w1 = *(u32 *)(r10 - 0x60)
    2057:	15 01 01 00 18 00 00 00	if r1 == 0x18 goto +0x1 <.text+0x3f38>
    2058:	05 00 14 00 00 00 00 00	goto +0x14 <.text+0x3fd8>
    2059:	79 a8 b0 ff 00 00 00 00	r8 = *(u64 *)(r10 - 0x50)
    2060:	79 a1 a8 ff 00 00 00 00	r1 = *(u64 *)(r10 - 0x58)
    2061:	79 12 00 00 00 00 00 00	r2 = *(u64 *)(r1 + 0x0)
    2062:	79 11 08 00 00 00 00 00	r1 = *(u64 *)(r1 + 0x8)
    2063:	7b 1a e8 ff 00 00 00 00	*(u64 *)(r10 - 0x18) = r1
    2064:	7b 2a e0 ff 00 00 00 00	*(u64 *)(r10 - 0x20) = r2
    2065:	bf a1 00 00 00 00 00 00	r1 = r10
    2066:	07 01 00 00 a0 ff ff ff	r1 += -0x60
    2067:	bf a2 00 00 00 00 00 00	r2 = r10
    2068:	07 02 00 00 e0 ff ff ff	r2 += -0x20
    2069:	85 10 00 00 62 8a 00 00	call 0x8a62
    2070:	61 a1 a0 ff 00 00 00 00	w1 = *(u32 *)(r10 - 0x60)
    2071:	15 01 23 00 00 00 00 00	if r1 == 0x0 goto +0x23 <.text+0x40b8>
    2072:	79 a1 a8 ff 00 00 00 00	r1 = *(u64 *)(r10 - 0x58)
    2073:	79 a2 b0 ff 00 00 00 00	r2 = *(u64 *)(r10 - 0x50)
    2074:	7b 26 10 00 00 00 00 00	*(u64 *)(r6 + 0x10) = r2
    2075:	7b 16 08 00 00 00 00 00	*(u64 *)(r6 + 0x8) = r1
    2076:	b7 01 00 00 00 00 00 00	r1 = 0x0
    2077:	7b 16 00 00 00 00 00 00	*(u64 *)(r6 + 0x0) = r1
    2078:	05 00 2b 00 00 00 00 00	goto +0x2b <.text+0x4130>
    2079:	61 a2 a4 ff 00 00 00 00	w2 = *(u32 *)(r10 - 0x5c)
    2080:	79 a3 a8 ff 00 00 00 00	r3 = *(u64 *)(r10 - 0x58)
    2081:	79 a4 b0 ff 00 00 00 00	r4 = *(u64 *)(r10 - 0x50)
    2082:	79 a5 b8 ff 00 00 00 00	r5 = *(u64 *)(r10 - 0x48)
    2083:	7b 5a b8 ff 00 00 00 00	*(u64 *)(r10 - 0x48) = r5
    2084:	7b 4a b0 ff 00 00 00 00	*(u64 *)(r10 - 0x50) = r4
    2085:	7b 3a a8 ff 00 00 00 00	*(u64 *)(r10 - 0x58) = r3
    2086:	63 2a a4 ff 00 00 00 00	*(u32 *)(r10 - 0x5c) = w2
    2087:	63 1a a0 ff 00 00 00 00	*(u32 *)(r10 - 0x60) = w1
    2088:	bf a1 00 00 00 00 00 00	r1 = r10
    2089:	07 01 00 00 70 ff ff ff	r1 += -0x90
    2090:	bf a2 00 00 00 00 00 00	r2 = r10
    2091:	07 02 00 00 a0 ff ff ff	r2 += -0x60
    2092:	85 10 00 00 eb a5 00 00	call 0xa5eb
    2093:	79 a1 70 ff 00 00 00 00	r1 = *(u64 *)(r10 - 0x90)
    2094:	79 a2 78 ff 00 00 00 00	r2 = *(u64 *)(r10 - 0x88)
    2095:	05 00 06 00 00 00 00 00	goto +0x6 <.text+0x4090>
    2096:	bf a1 00 00 00 00 00 00	r1 = r10
    2097:	07 01 00 00 60 ff ff ff	r1 += -0xa0
    2098:	b7 02 00 00 c4 0b 00 00	r2 = 0xbc4
    2099:	85 10 00 00 43 ac 00 00	call 0xac43
    2100:	79 a1 60 ff 00 00 00 00	r1 = *(u64 *)(r10 - 0xa0)
    2101:	79 a2 68 ff 00 00 00 00	r2 = *(u64 *)(r10 - 0x98)
    2102:	7b 26 10 00 00 00 00 00	*(u64 *)(r6 + 0x10) = r2
    2103:	7b 16 08 00 00 00 00 00	*(u64 *)(r6 + 0x8) = r1
    2104:	b7 01 00 00 00 00 00 00	r1 = 0x0
    2105:	7b 16 00 00 00 00 00 00	*(u64 *)(r6 + 0x0) = r1
    2106:	95 00 00 00 00 00 00 00	exit
    2107:	79 a1 b8 ff 00 00 00 00	r1 = *(u64 *)(r10 - 0x48)
    2108:	7b 1a f0 ff 00 00 00 00	*(u64 *)(r10 - 0x10) = r1
    2109:	79 a1 c0 ff 00 00 00 00	r1 = *(u64 *)(r10 - 0x40)
    2110:	7b 1a f8 ff 00 00 00 00	*(u64 *)(r10 - 0x8) = r1
    2111:	61 a1 a4 ff 00 00 00 00	w1 = *(u32 *)(r10 - 0x5c)
    2112:	79 a2 a8 ff 00 00 00 00	r2 = *(u64 *)(r10 - 0x58)
    2113:	79 a3 b0 ff 00 00 00 00	r3 = *(u64 *)(r10 - 0x50)
    2114:	7b 36 14 00 00 00 00 00	*(u64 *)(r6 + 0x14) = r3
    2115:	7b 26 0c 00 00 00 00 00	*(u64 *)(r6 + 0xc) = r2
    2116:	63 16 08 00 00 00 00 00	*(u32 *)(r6 + 0x8) = w1
    2117:	7b 76 00 00 00 00 00 00	*(u64 *)(r6 + 0x0) = r7
    2118:	79 a1 f0 ff 00 00 00 00	r1 = *(u64 *)(r10 - 0x10)
    2119:	7b 16 1c 00 00 00 00 00	*(u64 *)(r6 + 0x1c) = r1
    2120:	79 a1 f8 ff 00 00 00 00	r1 = *(u64 *)(r10 - 0x8)
    2121:	7b 16 24 00 00 00 00 00	*(u64 *)(r6 + 0x24) = r1
    2122:	79 81 00 00 00 00 00 00	r1 = *(u64 *)(r8 + 0x0)
    2123:	07 01 00 00 ff ff ff ff	r1 += -0x1
    2124:	7b 18 00 00 00 00 00 00	*(u64 *)(r8 + 0x0) = r1
    2125:	05 00 ec ff 00 00 00 00	goto -0x14 <.text+0x40b0>
    2126:	bf 27 00 00 00 00 00 00	r7 = r2
    2127:	bf 16 00 00 00 00 00 00	r6 = r1
    2128:	79 78 18 00 00 00 00 00	r8 = *(u64 *)(r7 + 0x18)
    2129:	79 81 00 00 00 00 00 00	r1 = *(u64 *)(r8 + 0x0)
    2130:	15 01 02 00 00 00 00 00	if r1 == 0x0 goto +0x2 <.text+0x4188>
    2131:	b7 01 00 00 01 00 00 00	r1 = 0x1
    2132:	05 00 07 00 00 00 00 00	goto +0x7 <.text+0x41c0>
    2133:	79 81 08 00 00 00 00 00	r1 = *(u64 *)(r8 + 0x8)
    2134:	55 01 fc ff 00 00 00 00	if r1 != 0x0 goto -0x4 <.text+0x4178>
    2135:	79 81 10 00 00 00 00 00	r1 = *(u64 *)(r8 + 0x10)
    2136:	55 01 fa ff 00 00 00 00	if r1 != 0x0 goto -0x6 <.text+0x4178>
    2137:	b7 01 00 00 00 00 00 00	r1 = 0x0
    2138:	79 82 18 00 00 00 00 00	r2 = *(u64 *)(r8 + 0x18)
    2139:	55 02 f7 ff 00 00 00 00	if r2 != 0x0 goto -0x9 <.text+0x4178>
    2140:	55 01 03 00 00 00 00 00	if r1 != 0x0 goto +0x3 <.text+0x41e0>
    2141:	bf 71 00 00 00 00 00 00	r1 = r7
    2142:	85 10 00 00 7d b0 00 00	call 0xb07d
    2143:	15 00 64 00 00 00 00 00	if r0 == 0x0 goto +0x64 <.text+0x4500>
    2144:	79 81 00 00 00 00 00 00	r1 = *(u64 *)(r8 + 0x0)
    2145:	18 02 00 00 06 dd f6 e1 00 00 00 00 d7 65 a1 93	r2 = -0x6c5e9a281e0922fa ll
    2147:	1d 21 24 00 00 00 00 00	if r1 == r2 goto +0x24 <.text+0x4320>
    2148:	b7 01 00 00 01 00 00 00	r1 = 0x1
    2149:	15 01 31 00 00 00 00 00	if r1 == 0x0 goto +0x31 <.text+0x4398>
    2150:	bf a1 00 00 00 00 00 00	r1 = r10
    2151:	07 01 00 00 88 ff ff ff	r1 += -0x78
    2152:	b7 02 00 00 bf 0b 00 00	r2 = 0xbbf
    2153:	85 10 00 00 0d ac 00 00	call 0xac0d
    2154:	79 a3 90 ff 00 00 00 00	r3 = *(u64 *)(r10 - 0x70)
    2155:	79 a2 88 ff 00 00 00 00	r2 = *(u64 *)(r10 - 0x78)
    2156:	79 81 18 00 00 00 00 00	r1 = *(u64 *)(r8 + 0x18)
    2157:	7b 1a c0 ff 00 00 00 00	*(u64 *)(r10 - 0x40) = r1
    2158:	79 81 10 00 00 00 00 00	r1 = *(u64 *)(r8 + 0x10)
    2159:	7b 1a b8 ff 00 00 00 00	*(u64 *)(r10 - 0x48) = r1
    2160:	79 81 08 00 00 00 00 00	r1 = *(u64 *)(r8 + 0x8)
    2161:	7b 1a b0 ff 00 00 00 00	*(u64 *)(r10 - 0x50) = r1
    2162:	79 81 00 00 00 00 00 00	r1 = *(u64 *)(r8 + 0x0)
    2163:	7b 1a a8 ff 00 00 00 00	*(u64 *)(r10 - 0x58) = r1
    2164:	18 01 00 00 06 dd f6 e1 00 00 00 00 d7 65 a1 93	r1 = -0x6c5e9a281e0922fa ll
    2166:	7b 1a c8 ff 00 00 00 00	*(u64 *)(r10 - 0x38) = r1
    2167:	18 01 00 00 d9 cb e1 46 00 00 00 00 ce eb 79 ac	r1 = -0x53861431b91e3427 ll
    2169:	7b 1a d0 ff 00 00 00 00	*(u64 *)(r10 - 0x30) = r1
    2170:	18 01 00 00 1c b4 85 ed 00 00 00 00 5f 5b 37 91	r1 = -0x6ec8a4a0127a4be4 ll
    2172:	7b 1a d8 ff 00 00 00 00	*(u64 *)(r10 - 0x28) = r1
    2173:	18 01 00 00 3a 8c f5 85 00 00 00 00 7e ff 00 a9	r1 = -0x56ff00817a0a73c6 ll
    2175:	7b 1a e0 ff 00 00 00 00	*(u64 *)(r10 - 0x20) = r1
    2176:	bf a1 00 00 00 00 00 00	r1 = r10
    2177:	07 01 00 00 78 ff ff ff	r1 += -0x88
    2178:	bf a4 00 00 00 00 00 00	r4 = r10
    2179:	07 04 00 00 a8 ff ff ff	r4 += -0x58
    2180:	85 10 00 00 b4 a5 00 00	call 0xa5b4
    2181:	79 a1 78 ff 00 00 00 00	r1 = *(u64 *)(r10 - 0x88)
    2182:	79 a2 80 ff 00 00 00 00	r2 = *(u64 *)(r10 - 0x80)
    2183:	05 00 42 00 00 00 00 00	goto +0x42 <.text+0x4530>
    2184:	79 81 08 00 00 00 00 00	r1 = *(u64 *)(r8 + 0x8)
    2185:	18 02 00 00 d9 cb e1 46 00 00 00 00 ce eb 79 ac	r2 = -0x53861431b91e3427 ll
    2187:	5d 21 d8 ff 00 00 00 00	if r1 != r2 goto -0x28 <.text+0x4200>
    2188:	79 81 10 00 00 00 00 00	r1 = *(u64 *)(r8 + 0x10)
    2189:	18 02 00 00 1c b4 85 ed 00 00 00 00 5f 5b 37 91	r2 = -0x6ec8a4a0127a4be4 ll
    2191:	5d 21 d4 ff 00 00 00 00	if r1 != r2 goto -0x2c <.text+0x4200>
    2192:	b7 01 00 00 00 00 00 00	r1 = 0x0
    2193:	79 82 18 00 00 00 00 00	r2 = *(u64 *)(r8 + 0x18)
    2194:	18 03 00 00 3a 8c f5 85 00 00 00 00 7e ff 00 a9	r3 = -0x56ff00817a0a73c6 ll
    2196:	5d 32 cf ff 00 00 00 00	if r2 != r3 goto -0x31 <.text+0x4200>
    2197:	15 01 01 00 00 00 00 00	if r1 == 0x0 goto +0x1 <.text+0x4398>
    2198:	05 00 cf ff 00 00 00 00	goto -0x31 <.text+0x4210>
    2199:	bf a1 00 00 00 00 00 00	r1 = r10
    2200:	07 01 00 00 a8 ff ff ff	r1 += -0x58
    2201:	bf 72 00 00 00 00 00 00	r2 = r7
    2202:	85 10 00 00 78 b0 00 00	call 0xb078
    2203:	61 a1 a8 ff 00 00 00 00	w1 = *(u32 *)(r10 - 0x58)
    2204:	15 01 01 00 18 00 00 00	if r1 == 0x18 goto +0x1 <.text+0x43d0>
    2205:	05 00 15 00 00 00 00 00	goto +0x15 <.text+0x4478>
    2206:	79 a8 b8 ff 00 00 00 00	r8 = *(u64 *)(r10 - 0x48)
    2207:	79 a1 b0 ff 00 00 00 00	r1 = *(u64 *)(r10 - 0x50)
    2208:	79 12 00 00 00 00 00 00	r2 = *(u64 *)(r1 + 0x0)
    2209:	79 11 08 00 00 00 00 00	r1 = *(u64 *)(r1 + 0x8)
    2210:	7b 1a a0 ff 00 00 00 00	*(u64 *)(r10 - 0x60) = r1
    2211:	7b 2a 98 ff 00 00 00 00	*(u64 *)(r10 - 0x68) = r2
    2212:	bf a1 00 00 00 00 00 00	r1 = r10
    2213:	07 01 00 00 a8 ff ff ff	r1 += -0x58
    2214:	bf a2 00 00 00 00 00 00	r2 = r10
    2215:	07 02 00 00 98 ff ff ff	r2 += -0x68
    2216:	85 10 00 00 49 9b 00 00	call 0x9b49
    2217:	61 a9 a8 ff 00 00 00 00	w9 = *(u32 *)(r10 - 0x58)
    2218:	15 09 01 00 02 00 00 00	if r9 == 0x2 goto +0x1 <.text+0x4440>
    2219:	05 00 23 00 00 00 00 00	goto +0x23 <.text+0x4558>
    2220:	79 a1 b0 ff 00 00 00 00	r1 = *(u64 *)(r10 - 0x50)
    2221:	79 a2 b8 ff 00 00 00 00	r2 = *(u64 *)(r10 - 0x48)
    2222:	7b 26 10 00 00 00 00 00	*(u64 *)(r6 + 0x10) = r2
    2223:	7b 16 08 00 00 00 00 00	*(u64 *)(r6 + 0x8) = r1
    2224:	b7 01 00 00 02 00 00 00	r1 = 0x2
    2225:	63 16 00 00 00 00 00 00	*(u32 *)(r6 + 0x0) = w1
    2226:	05 00 30 00 00 00 00 00	goto +0x30 <.text+0x45f8>
    2227:	61 a2 ac ff 00 00 00 00	w2 = *(u32 *)(r10 - 0x54)
    2228:	79 a3 b0 ff 00 00 00 00	r3 = *(u64 *)(r10 - 0x50)
    2229:	79 a4 b8 ff 00 00 00 00	r4 = *(u64 *)(r10 - 0x48)
    2230:	79 a5 c0 ff 00 00 00 00	r5 = *(u64 *)(r10 - 0x40)
    2231:	7b 5a c0 ff 00 00 00 00	*(u64 *)(r10 - 0x40) = r5
    2232:	7b 4a b8 ff 00 00 00 00	*(u64 *)(r10 - 0x48) = r4
    2233:	7b 3a b0 ff 00 00 00 00	*(u64 *)(r10 - 0x50) = r3
    2234:	63 2a ac ff 00 00 00 00	*(u32 *)(r10 - 0x54) = w2
    2235:	63 1a a8 ff 00 00 00 00	*(u32 *)(r10 - 0x58) = w1
    2236:	bf a1 00 00 00 00 00 00	r1 = r10
    2237:	07 01 00 00 68 ff ff ff	r1 += -0x98
    2238:	bf a2 00 00 00 00 00 00	r2 = r10
    2239:	07 02 00 00 a8 ff ff ff	r2 += -0x58
    2240:	85 10 00 00 57 a5 00 00	call 0xa557
    2241:	79 a1 68 ff 00 00 00 00	r1 = *(u64 *)(r10 - 0x98)
    2242:	79 a2 70 ff 00 00 00 00	r2 = *(u64 *)(r10 - 0x90)
    2243:	05 00 06 00 00 00 00 00	goto +0x6 <.text+0x4530>
    2244:	bf a1 00 00 00 00 00 00	r1 = r10
    2245:	07 01 00 00 58 ff ff ff	r1 += -0xa8
    2246:	b7 02 00 00 c4 0b 00 00	r2 = 0xbc4
    2247:	85 10 00 00 af ab 00 00	call 0xabaf
    2248:	79 a1 58 ff 00 00 00 00	r1 = *(u64 *)(r10 - 0xa8)
    2249:	79 a2 60 ff 00 00 00 00	r2 = *(u64 *)(r10 - 0xa0)
    2250:	7b 26 10 00 00 00 00 00	*(u64 *)(r6 + 0x10) = r2
    2251:	7b 16 08 00 00 00 00 00	*(u64 *)(r6 + 0x8) = r1
    2252:	b7 01 00 00 02 00 00 00	r1 = 0x2
    2253:	63 16 00 00 00 00 00 00	*(u32 *)(r6 + 0x0) = w1
    2254:	95 00 00 00 00 00 00 00	exit
    2255:	61 a1 ac ff 00 00 00 00	w1 = *(u32 *)(r10 - 0x54)
    2256:	7b 1a 50 ff 00 00 00 00	*(u64 *)(r10 - 0xb0) = r1
    2257:	79 a1 b0 ff 00 00 00 00	r1 = *(u64 *)(r10 - 0x50)
    2258:	7b 1a 48 ff 00 00 00 00	*(u64 *)(r10 - 0xb8) = r1
    2259:	79 a1 b8 ff 00 00 00 00	r1 = *(u64 *)(r10 - 0x48)
    2260:	7b 1a 40 ff 00 00 00 00	*(u64 *)(r10 - 0xc0) = r1
    2261:	bf 61 00 00 00 00 00 00	r1 = r6
    2262:	07 01 00 00 18 00 00 00	r1 += 0x18
    2263:	bf a2 00 00 00 00 00 00	r2 = r10
    2264:	07 02 00 00 c0 ff ff ff	r2 += -0x40
    2265:	b7 03 00 00 40 00 00 00	r3 = 0x40
    2266:	85 10 00 00 e5 ce 00 00	call 0xcee5
    2267:	7b 76 58 00 00 00 00 00	*(u64 *)(r6 + 0x58) = r7
    2268:	79 a1 40 ff 00 00 00 00	r1 = *(u64 *)(r10 - 0xc0)
    2269:	7b 16 10 00 00 00 00 00	*(u64 *)(r6 + 0x10) = r1
    2270:	79 a1 48 ff 00 00 00 00	r1 = *(u64 *)(r10 - 0xb8)
    2271:	7b 16 08 00 00 00 00 00	*(u64 *)(r6 + 0x8) = r1
    2272:	79 a1 50 ff 00 00 00 00	r1 = *(u64 *)(r10 - 0xb0)
    2273:	63 16 04 00 00 00 00 00	*(u32 *)(r6 + 0x4) = w1
    2274:	63 96 00 00 00 00 00 00	*(u32 *)(r6 + 0x0) = w9
    2275:	79 81 00 00 00 00 00 00	r1 = *(u64 *)(r8 + 0x0)
    2276:	07 01 00 00 ff ff ff ff	r1 += -0x1
    2277:	7b 18 00 00 00 00 00 00	*(u64 *)(r8 + 0x0) = r1
    2278:	05 00 e7 ff 00 00 00 00	goto -0x19 <.text+0x4550>
    2279:	79 23 10 00 00 00 00 00	r3 = *(u64 *)(r2 + 0x10)
    2280:	7b 31 08 00 00 00 00 00	*(u64 *)(r1 + 0x8) = r3
    2281:	79 22 00 00 00 00 00 00	r2 = *(u64 *)(r2 + 0x0)
    2282:	7b 21 00 00 00 00 00 00	*(u64 *)(r1 + 0x0) = r2
    2283:	95 00 00 00 00 00 00 00	exit
    2284:	18 02 00 00 00 00 00 00 00 00 00 00 03 00 00 00	r2 = 0x300000000 ll
    2286:	79 23 00 00 00 00 00 00	r3 = *(u64 *)(r2 + 0x0)
    2287:	bf 32 00 00 00 00 00 00	r2 = r3
    2288:	07 02 00 00 e8 ff ff ff	r2 += -0x18
    2289:	b7 04 00 00 00 00 00 00	r4 = 0x0
    2290:	b7 05 00 00 01 00 00 00	r5 = 0x1
    2291:	2d 32 01 00 00 00 00 00	if r2 > r3 goto +0x1 <.text+0x4688>
    2292:	b7 05 00 00 00 00 00 00	r5 = 0x0
    2293:	55 05 01 00 00 00 00 00	if r5 != 0x0 goto +0x1 <.text+0x4698>
    2294:	bf 24 00 00 00 00 00 00	r4 = r2
    2295:	18 02 00 00 e8 7f 00 00 00 00 00 00 03 00 00 00	r2 = 0x300007fe8 ll
    2297:	15 03 02 00 00 00 00 00	if r3 == 0x0 goto +0x2 <.text+0x46c0>
    2298:	57 04 00 00 f8 ff ff ff	r4 &= -0x8
    2299:	bf 42 00 00 00 00 00 00	r2 = r4
    2300:	18 03 00 00 07 00 00 00 00 00 00 00 03 00 00 00	r3 = 0x300000007 ll
    2302:	2d 32 04 00 00 00 00 00	if r2 > r3 goto +0x4 <.text+0x46f8>
    2303:	b7 01 00 00 08 00 00 00	r1 = 0x8
    2304:	b7 02 00 00 18 00 00 00	r2 = 0x18
    2305:	85 10 00 00 77 be 00 00	call 0xbe77
    2306:	85 10 00 00 ff ff ff ff	call -0x1
    2307:	18 03 00 00 00 00 00 00 00 00 00 00 03 00 00 00	r3 = 0x300000000 ll
    2309:	7b 23 00 00 00 00 00 00	*(u64 *)(r3 + 0x0) = r2
    2310:	79 13 10 00 00 00 00 00	r3 = *(u64 *)(r1 + 0x10)
    2311:	7b 32 10 00 00 00 00 00	*(u64 *)(r2 + 0x10) = r3
    2312:	79 13 08 00 00 00 00 00	r3 = *(u64 *)(r1 + 0x8)
    2313:	7b 32 08 00 00 00 00 00	*(u64 *)(r2 + 0x8) = r3
    2314:	79 11 00 00 00 00 00 00	r1 = *(u64 *)(r1 + 0x0)
    2315:	7b 12 00 00 00 00 00 00	*(u64 *)(r2 + 0x0) = r1
    2316:	b7 01 00 00 14 00 00 00	r1 = 0x14
    2317:	18 03 00 00 00 67 07 00 00 00 00 00 00 00 00 00	r3 = 0x76700 ll
    2319:	85 10 00 00 2e bc 00 00	call 0xbc2e
    2320:	95 00 00 00 00 00 00 00	exit
    2321:	18 01 00 00 00 00 00 00 00 00 00 00 03 00 00 00	r1 = 0x300000000 ll
    2323:	79 12 00 00 00 00 00 00	r2 = *(u64 *)(r1 + 0x0)
    2324:	bf 21 00 00 00 00 00 00	r1 = r2
    2325:	07 01 00 00 e6 ff ff ff	r1 += -0x1a
    2326:	b7 03 00 00 00 00 00 00	r3 = 0x0
    2327:	b7 04 00 00 01 00 00 00	r4 = 0x1
    2328:	2d 21 01 00 00 00 00 00	if r1 > r2 goto +0x1 <.text+0x47b0>
    2329:	b7 04 00 00 00 00 00 00	r4 = 0x0
    2330:	55 04 01 00 00 00 00 00	if r4 != 0x0 goto +0x1 <.text+0x47c0>
    2331:	bf 13 00 00 00 00 00 00	r3 = r1
    2332:	18 01 00 00 e6 7f 00 00 00 00 00 00 03 00 00 00	r1 = 0x300007fe6 ll
    2334:	15 02 01 00 00 00 00 00	if r2 == 0x0 goto +0x1 <.text+0x47e0>
    2335:	bf 31 00 00 00 00 00 00	r1 = r3
    2336:	18 02 00 00 07 00 00 00 00 00 00 00 03 00 00 00	r2 = 0x300000007 ll
    2338:	2d 21 04 00 00 00 00 00	if r1 > r2 goto +0x4 <.text+0x4818>
    2339:	b7 01 00 00 01 00 00 00	r1 = 0x1
    2340:	b7 02 00 00 1a 00 00 00	r2 = 0x1a
    2341:	85 10 00 00 53 be 00 00	call 0xbe53
    2342:	85 10 00 00 ff ff ff ff	call -0x1
    2343:	18 02 00 00 00 00 00 00 00 00 00 00 03 00 00 00	r2 = 0x300000000 ll
    2345:	7b 12 00 00 00 00 00 00	*(u64 *)(r2 + 0x0) = r1
    2346:	b7 03 00 00 75 74 00 00	r3 = 0x7475
    2347:	6b 31 18 00 00 00 00 00	*(u16 *)(r1 + 0x18) = w3
    2348:	18 03 00 00 68 20 6f 66 00 00 00 00 20 69 6e 70	r3 = 0x706e6920666f2068 ll
    2350:	7b 31 10 00 00 00 00 00	*(u64 *)(r1 + 0x10) = r3
    2351:	18 03 00 00 65 64 20 6c 00 00 00 00 65 6e 67 74	r3 = 0x74676e656c206465 ll
    2353:	7b 31 08 00 00 00 00 00	*(u64 *)(r1 + 0x8) = r3
    2354:	18 03 00 00 55 6e 65 78 00 00 00 00 70 65 63 74	r3 = 0x7463657078656e55 ll
    2356:	7b 31 00 00 00 00 00 00	*(u64 *)(r1 + 0x0) = r3
    2357:	79 23 00 00 00 00 00 00	r3 = *(u64 *)(r2 + 0x0)
    2358:	bf 32 00 00 00 00 00 00	r2 = r3
    2359:	07 02 00 00 e8 ff ff ff	r2 += -0x18
    2360:	b7 04 00 00 00 00 00 00	r4 = 0x0
    2361:	b7 05 00 00 01 00 00 00	r5 = 0x1
    2362:	2d 32 01 00 00 00 00 00	if r2 > r3 goto +0x1 <.text+0x48c0>
    2363:	b7 05 00 00 00 00 00 00	r5 = 0x0
    2364:	55 05 01 00 00 00 00 00	if r5 != 0x0 goto +0x1 <.text+0x48d0>
    2365:	bf 24 00 00 00 00 00 00	r4 = r2
    2366:	18 02 00 00 e8 7f 00 00 00 00 00 00 03 00 00 00	r2 = 0x300007fe8 ll
    2368:	15 03 02 00 00 00 00 00	if r3 == 0x0 goto +0x2 <.text+0x48f8>
    2369:	57 04 00 00 f8 ff ff ff	r4 &= -0x8
    2370:	bf 42 00 00 00 00 00 00	r2 = r4
    2371:	18 03 00 00 07 00 00 00 00 00 00 00 03 00 00 00	r3 = 0x300000007 ll
    2373:	2d 32 04 00 00 00 00 00	if r2 > r3 goto +0x4 <.text+0x4930>
    2374:	b7 01 00 00 08 00 00 00	r1 = 0x8
    2375:	b7 02 00 00 18 00 00 00	r2 = 0x18
    2376:	85 10 00 00 30 be 00 00	call 0xbe30
    2377:	85 10 00 00 ff ff ff ff	call -0x1
    2378:	18 03 00 00 00 00 00 00 00 00 00 00 03 00 00 00	r3 = 0x300000000 ll
    2380:	7b 23 00 00 00 00 00 00	*(u64 *)(r3 + 0x0) = r2
    2381:	b7 03 00 00 1a 00 00 00	r3 = 0x1a
    2382:	7b 32 10 00 00 00 00 00	*(u64 *)(r2 + 0x10) = r3
    2383:	7b 32 08 00 00 00 00 00	*(u64 *)(r2 + 0x8) = r3
    2384:	7b 12 00 00 00 00 00 00	*(u64 *)(r2 + 0x0) = r1
    2385:	b7 01 00 00 14 00 00 00	r1 = 0x14
    2386:	18 03 00 00 00 67 07 00 00 00 00 00 00 00 00 00	r3 = 0x76700 ll
    2388:	85 10 00 00 e9 bb 00 00	call 0xbbe9
    2389:	95 00 00 00 00 00 00 00	exit
    2390:	79 11 00 00 00 00 00 00	r1 = *(u64 *)(r1 + 0x0)
    2391:	79 11 00 00 00 00 00 00	r1 = *(u64 *)(r1 + 0x0)
    2392:	bf 13 00 00 00 00 00 00	r3 = r1
    2393:	07 03 00 00 20 00 00 00	r3 += 0x20
    2394:	7b 3a f8 ff 00 00 00 00	*(u64 *)(r10 - 0x8) = r3
    2395:	bf a3 00 00 00 00 00 00	r3 = r10
    2396:	07 03 00 00 f8 ff ff ff	r3 += -0x8
    2397:	7b 3a 88 f0 00 00 00 00	*(u64 *)(r10 - 0xf78) = r3
    2398:	18 03 00 00 78 69 07 00 00 00 00 00 00 00 00 00	r3 = 0x76978 ll
    2400:	7b 3a 90 f0 00 00 00 00	*(u64 *)(r10 - 0xf70) = r3
    2401:	b7 03 00 00 0f 00 00 00	r3 = 0xf
    2402:	7b 3a 80 f0 00 00 00 00	*(u64 *)(r10 - 0xf80) = r3
    2403:	18 03 00 00 f0 30 07 00 00 00 00 00 00 00 00 00	r3 = 0x730f0 ll
    2405:	7b 3a 78 f0 00 00 00 00	*(u64 *)(r10 - 0xf88) = r3
    2406:	18 03 00 00 58 69 07 00 00 00 00 00 00 00 00 00	r3 = 0x76958 ll
    2408:	7b 3a 70 f0 00 00 00 00	*(u64 *)(r10 - 0xf90) = r3
    2409:	b7 03 00 00 0c 00 00 00	r3 = 0xc
    2410:	7b 3a 60 f0 00 00 00 00	*(u64 *)(r10 - 0xfa0) = r3
    2411:	18 03 00 00 e4 30 07 00 00 00 00 00 00 00 00 00	r3 = 0x730e4 ll
    2413:	7b 3a 58 f0 00 00 00 00	*(u64 *)(r10 - 0xfa8) = r3
    2414:	bf 13 00 00 00 00 00 00	r3 = r1
    2415:	07 03 00 00 80 00 00 00	r3 += 0x80
    2416:	7b 3a 48 f0 00 00 00 00	*(u64 *)(r10 - 0xfb8) = r3
    2417:	b7 03 00 00 09 00 00 00	r3 = 0x9
    2418:	7b 3a 40 f0 00 00 00 00	*(u64 *)(r10 - 0xfc0) = r3
    2419:	18 03 00 00 db 30 07 00 00 00 00 00 00 00 00 00	r3 = 0x730db ll
    2421:	7b 3a 38 f0 00 00 00 00	*(u64 *)(r10 - 0xfc8) = r3
    2422:	18 03 00 00 38 69 07 00 00 00 00 00 00 00 00 00	r3 = 0x76938 ll
    2424:	7b 3a 30 f0 00 00 00 00	*(u64 *)(r10 - 0xfd0) = r3
    2425:	bf 13 00 00 00 00 00 00	r3 = r1
    2426:	07 03 00 00 98 00 00 00	r3 += 0x98
    2427:	7b 3a 28 f0 00 00 00 00	*(u64 *)(r10 - 0xfd8) = r3
    2428:	b7 03 00 00 11 00 00 00	r3 = 0x11
    2429:	7b 3a 20 f0 00 00 00 00	*(u64 *)(r10 - 0xfe0) = r3
    2430:	18 03 00 00 ca 30 07 00 00 00 00 00 00 00 00 00	r3 = 0x730ca ll
    2432:	7b 3a 18 f0 00 00 00 00	*(u64 *)(r10 - 0xfe8) = r3
    2433:	18 03 00 00 18 69 07 00 00 00 00 00 00 00 00 00	r3 = 0x76918 ll
    2435:	7b 3a 50 f0 00 00 00 00	*(u64 *)(r10 - 0xfb0) = r3
    2436:	7b 3a 10 f0 00 00 00 00	*(u64 *)(r10 - 0xff0) = r3
    2437:	7b 1a 68 f0 00 00 00 00	*(u64 *)(r10 - 0xf98) = r1
    2438:	07 01 00 00 68 00 00 00	r1 += 0x68
    2439:	7b 1a 08 f0 00 00 00 00	*(u64 *)(r10 - 0xff8) = r1
    2440:	b7 01 00 00 0a 00 00 00	r1 = 0xa
    2441:	7b 1a 00 f0 00 00 00 00	*(u64 *)(r10 - 0x1000) = r1
    2442:	bf a5 00 00 00 00 00 00	r5 = r10
    2443:	bf 21 00 00 00 00 00 00	r1 = r2
    2444:	18 02 00 00 36 30 07 00 00 00 00 00 00 00 00 00	r2 = 0x73036 ll
    2446:	b7 03 00 00 0b 00 00 00	r3 = 0xb
    2447:	18 04 00 00 c0 30 07 00 00 00 00 00 00 00 00 00	r4 = 0x730c0 ll
    2449:	85 10 00 00 39 c6 00 00	call 0xc639
    2450:	95 00 00 00 00 00 00 00	exit
    2451:	bf 23 00 00 00 00 00 00	r3 = r2
    2452:	79 12 08 00 00 00 00 00	r2 = *(u64 *)(r1 + 0x8)
    2453:	79 11 00 00 00 00 00 00	r1 = *(u64 *)(r1 + 0x0)
    2454:	85 10 00 00 d6 c6 00 00	call 0xc6d6
    2455:	95 00 00 00 00 00 00 00	exit
    2456:	79 11 00 00 00 00 00 00	r1 = *(u64 *)(r1 + 0x0)
    2457:	85 10 00 00 c3 b0 00 00	call 0xb0c3
    2458:	95 00 00 00 00 00 00 00	exit
    2459:	79 17 00 00 00 00 00 00	r7 = *(u64 *)(r1 + 0x0)
    2460:	bf a6 00 00 00 00 00 00	r6 = r10
    2461:	07 06 00 00 d8 ff ff ff	r6 += -0x28
    2462:	bf 61 00 00 00 00 00 00	r1 = r6
    2463:	18 03 00 00 08 2f 07 00 00 00 00 00 00 00 00 00	r3 = 0x72f08 ll
    2465:	b7 04 00 00 00 00 00 00	r4 = 0x0
    2466:	85 10 00 00 70 c6 00 00	call 0xc670
    2467:	7b 7a f0 ff 00 00 00 00	*(u64 *)(r10 - 0x10) = r7
    2468:	07 07 00 00 18 00 00 00	r7 += 0x18
    2469:	7b 7a f8 ff 00 00 00 00	*(u64 *)(r10 - 0x8) = r7
    2470:	bf a2 00 00 00 00 00 00	r2 = r10
    2471:	07 02 00 00 f0 ff ff ff	r2 += -0x10
    2472:	bf 61 00 00 00 00 00 00	r1 = r6
    2473:	18 03 00 00 d8 67 07 00 00 00 00 00 00 00 00 00	r3 = 0x767d8 ll
    2475:	85 10 00 00 73 c2 00 00	call 0xc273
    2476:	bf a2 00 00 00 00 00 00	r2 = r10
    2477:	07 02 00 00 f8 ff ff ff	r2 += -0x8
    2478:	bf 61 00 00 00 00 00 00	r1 = r6
    2479:	18 03 00 00 d8 67 07 00 00 00 00 00 00 00 00 00	r3 = 0x767d8 ll
    2481:	85 10 00 00 6d c2 00 00	call 0xc26d
    2482:	bf 61 00 00 00 00 00 00	r1 = r6
    2483:	85 10 00 00 c5 c2 00 00	call 0xc2c5
    2484:	95 00 00 00 00 00 00 00	exit
    2485:	79 11 00 00 00 00 00 00	r1 = *(u64 *)(r1 + 0x0)
    2486:	79 13 00 00 00 00 00 00	r3 = *(u64 *)(r1 + 0x0)
    2487:	55 03 0b 00 00 00 00 00	if r3 != 0x0 goto +0xb <.text+0x4cf8>
    2488:	07 01 00 00 08 00 00 00	r1 += 0x8
    2489:	7b 1a f8 ff 00 00 00 00	*(u64 *)(r10 - 0x8) = r1
    2490:	bf a4 00 00 00 00 00 00	r4 = r10
    2491:	07 04 00 00 f8 ff ff ff	r4 += -0x8
    2492:	bf 21 00 00 00 00 00 00	r1 = r2
    2493:	18 02 00 00 4d 30 07 00 00 00 00 00 00 00 00 00	r2 = 0x7304d ll
    2495:	b7 03 00 00 06 00 00 00	r3 = 0x6
    2496:	18 05 00 00 98 69 07 00 00 00 00 00 00 00 00 00	r5 = 0x76998 ll
    2498:	05 00 0a 00 00 00 00 00	goto +0xa <.text+0x4d48>
    2499:	07 01 00 00 08 00 00 00	r1 += 0x8
    2500:	7b 1a f8 ff 00 00 00 00	*(u64 *)(r10 - 0x8) = r1
    2501:	bf a4 00 00 00 00 00 00	r4 = r10
    2502:	07 04 00 00 f8 ff ff ff	r4 += -0x8
    2503:	bf 21 00 00 00 00 00 00	r1 = r2
    2504:	18 02 00 00 ff 30 07 00 00 00 00 00 00 00 00 00	r2 = 0x730ff ll
    2506:	b7 03 00 00 0b 00 00 00	r3 = 0xb
    2507:	18 05 00 00 d8 67 07 00 00 00 00 00 00 00 00 00	r5 = 0x767d8 ll
    2509:	85 10 00 00 57 c6 00 00	call 0xc657
    2510:	95 00 00 00 00 00 00 00	exit
    2511:	79 11 00 00 00 00 00 00	r1 = *(u64 *)(r1 + 0x0)
    2512:	61 23 34 00 00 00 00 00	w3 = *(u32 *)(r2 + 0x34)
    2513:	bf 34 00 00 00 00 00 00	r4 = r3
    2514:	57 04 00 00 10 00 00 00	r4 &= 0x10
    2515:	55 04 05 00 00 00 00 00	if r4 != 0x0 goto +0x5 <.text+0x4da8>
    2516:	57 03 00 00 20 00 00 00	r3 &= 0x20
    2517:	15 03 01 00 00 00 00 00	if r3 == 0x0 goto +0x1 <.text+0x4d98>
    2518:	05 00 04 00 00 00 00 00	goto +0x4 <.text+0x4db8>
    2519:	85 10 00 00 6c cd 00 00	call 0xcd6c
    2520:	05 00 03 00 00 00 00 00	goto +0x3 <.text+0x4dc0>
    2521:	85 10 00 00 f5 cb 00 00	call 0xcbf5
    2522:	05 00 01 00 00 00 00 00	goto +0x1 <.text+0x4dc0>
    2523:	85 10 00 00 22 cc 00 00	call 0xcc22
    2524:	95 00 00 00 00 00 00 00	exit
    2525:	79 11 00 00 00 00 00 00	r1 = *(u64 *)(r1 + 0x0)
    2526:	71 13 00 00 00 00 00 00	w3 = *(u8 *)(r1 + 0x0)
    2527:	55 03 06 00 02 00 00 00	if r3 != 0x2 goto +0x6 <.text+0x4e10>
    2528:	bf 21 00 00 00 00 00 00	r1 = r2
    2529:	18 02 00 00 b4 30 07 00 00 00 00 00 00 00 00 00	r2 = 0x730b4 ll
    2531:	b7 03 00 00 04 00 00 00	r3 = 0x4
    2532:	85 10 00 00 5c c5 00 00	call 0xc55c
    2533:	05 00 0a 00 00 00 00 00	goto +0xa <.text+0x4e60>
    2534:	7b 1a f8 ff 00 00 00 00	*(u64 *)(r10 - 0x8) = r1
    2535:	bf a4 00 00 00 00 00 00	r4 = r10
    2536:	07 04 00 00 f8 ff ff ff	r4 += -0x8
    2537:	bf 21 00 00 00 00 00 00	r1 = r2
    2538:	18 02 00 00 a4 30 07 00 00 00 00 00 00 00 00 00	r2 = 0x730a4 ll
    2540:	b7 03 00 00 04 00 00 00	r3 = 0x4
    2541:	18 05 00 00 d8 68 07 00 00 00 00 00 00 00 00 00	r5 = 0x768d8 ll
    2543:	85 10 00 00 35 c6 00 00	call 0xc635
    2544:	95 00 00 00 00 00 00 00	exit
    2545:	79 11 00 00 00 00 00 00	r1 = *(u64 *)(r1 + 0x0)
    2546:	79 11 00 00 00 00 00 00	r1 = *(u64 *)(r1 + 0x0)
    2547:	bf 13 00 00 00 00 00 00	r3 = r1
    2548:	07 03 00 00 40 00 00 00	r3 += 0x40
    2549:	7b 3a f8 ff 00 00 00 00	*(u64 *)(r10 - 0x8) = r3
    2550:	bf a3 00 00 00 00 00 00	r3 = r10
    2551:	07 03 00 00 f8 ff ff ff	r3 += -0x8
    2552:	7b 3a 48 f0 00 00 00 00	*(u64 *)(r10 - 0xfb8) = r3
    2553:	18 03 00 00 78 69 07 00 00 00 00 00 00 00 00 00	r3 = 0x76978 ll
    2555:	7b 3a 50 f0 00 00 00 00	*(u64 *)(r10 - 0xfb0) = r3
    2556:	b7 03 00 00 0f 00 00 00	r3 = 0xf
    2557:	7b 3a 40 f0 00 00 00 00	*(u64 *)(r10 - 0xfc0) = r3
    2558:	18 03 00 00 f0 30 07 00 00 00 00 00 00 00 00 00	r3 = 0x730f0 ll
    2560:	7b 3a 38 f0 00 00 00 00	*(u64 *)(r10 - 0xfc8) = r3
    2561:	18 03 00 00 58 69 07 00 00 00 00 00 00 00 00 00	r3 = 0x76958 ll
    2563:	7b 3a 30 f0 00 00 00 00	*(u64 *)(r10 - 0xfd0) = r3
    2564:	b7 03 00 00 0c 00 00 00	r3 = 0xc
    2565:	7b 3a 20 f0 00 00 00 00	*(u64 *)(r10 - 0xfe0) = r3
    2566:	18 03 00 00 e4 30 07 00 00 00 00 00 00 00 00 00	r3 = 0x730e4 ll
    2568:	7b 3a 18 f0 00 00 00 00	*(u64 *)(r10 - 0xfe8) = r3
    2569:	18 03 00 00 28 6a 07 00 00 00 00 00 00 00 00 00	r3 = 0x76a28 ll
    2571:	7b 3a 10 f0 00 00 00 00	*(u64 *)(r10 - 0xff0) = r3
    2572:	7b 1a 28 f0 00 00 00 00	*(u64 *)(r10 - 0xfd8) = r1
    2573:	07 01 00 00 20 00 00 00	r1 += 0x20
    2574:	7b 1a 08 f0 00 00 00 00	*(u64 *)(r10 - 0xff8) = r1
    2575:	b7 01 00 00 0d 00 00 00	r1 = 0xd
    2576:	7b 1a 00 f0 00 00 00 00	*(u64 *)(r10 - 0x1000) = r1
    2577:	bf a5 00 00 00 00 00 00	r5 = r10
    2578:	bf 21 00 00 00 00 00 00	r1 = r2
    2579:	18 02 00 00 74 32 07 00 00 00 00 00 00 00 00 00	r2 = 0x73274 ll
    2581:	b7 03 00 00 16 00 00 00	r3 = 0x16
    2582:	18 04 00 00 8a 32 07 00 00 00 00 00 00 00 00 00	r4 = 0x7328a ll
    2584:	85 10 00 00 76 c5 00 00	call 0xc576
    2585:	95 00 00 00 00 00 00 00	exit
    2586:	bf 21 00 00 00 00 00 00	r1 = r2
    2587:	18 02 00 00 08 2f 07 00 00 00 00 00 00 00 00 00	r2 = 0x72f08 ll
    2589:	b7 03 00 00 02 00 00 00	r3 = 0x2
    2590:	85 10 00 00 75 c4 00 00	call 0xc475
    2591:	95 00 00 00 00 00 00 00	exit
    2592:	79 11 00 00 00 00 00 00	r1 = *(u64 *)(r1 + 0x0)
    2593:	bf 13 00 00 00 00 00 00	r3 = r1
    2594:	07 03 00 00 10 00 00 00	r3 += 0x10
    2595:	7b 3a f8 ff 00 00 00 00	*(u64 *)(r10 - 0x8) = r3
    2596:	bf a3 00 00 00 00 00 00	r3 = r10
    2597:	07 03 00 00 f8 ff ff ff	r3 += -0x8
    2598:	7b 3a 28 f0 00 00 00 00	*(u64 *)(r10 - 0xfd8) = r3
    2599:	18 03 00 00 b8 68 07 00 00 00 00 00 00 00 00 00	r3 = 0x768b8 ll
    2601:	7b 3a 30 f0 00 00 00 00	*(u64 *)(r10 - 0xfd0) = r3
    2602:	b7 03 00 00 04 00 00 00	r3 = 0x4
    2603:	7b 3a 20 f0 00 00 00 00	*(u64 *)(r10 - 0xfe0) = r3
    2604:	18 03 00 00 b0 30 07 00 00 00 00 00 00 00 00 00	r3 = 0x730b0 ll
    2606:	7b 3a 18 f0 00 00 00 00	*(u64 *)(r10 - 0xfe8) = r3
    2607:	18 03 00 00 98 68 07 00 00 00 00 00 00 00 00 00	r3 = 0x76898 ll
    2609:	7b 3a 10 f0 00 00 00 00	*(u64 *)(r10 - 0xff0) = r3
    2610:	7b 1a 08 f0 00 00 00 00	*(u64 *)(r10 - 0xff8) = r1
    2611:	b7 01 00 00 08 00 00 00	r1 = 0x8
    2612:	7b 1a 00 f0 00 00 00 00	*(u64 *)(r10 - 0x1000) = r1
    2613:	bf a5 00 00 00 00 00 00	r5 = r10
    2614:	bf 21 00 00 00 00 00 00	r1 = r2
    2615:	18 02 00 00 4d 30 07 00 00 00 00 00 00 00 00 00	r2 = 0x7304d ll
    2617:	b7 03 00 00 06 00 00 00	r3 = 0x6
    2618:	18 04 00 00 73 30 07 00 00 00 00 00 00 00 00 00	r4 = 0x73073 ll
    2620:	85 10 00 00 1c c5 00 00	call 0xc51c
    2621:	95 00 00 00 00 00 00 00	exit
    2622:	79 11 00 00 00 00 00 00	r1 = *(u64 *)(r1 + 0x0)
    2623:	71 13 00 00 00 00 00 00	w3 = *(u8 *)(r1 + 0x0)
    2624:	55 03 0b 00 00 00 00 00	if r3 != 0x0 goto +0xb <.text+0x5140>
    2625:	07 01 00 00 08 00 00 00	r1 += 0x8
    2626:	7b 1a f8 ff 00 00 00 00	*(u64 *)(r10 - 0x8) = r1
    2627:	bf a4 00 00 00 00 00 00	r4 = r10
    2628:	07 04 00 00 f8 ff ff ff	r4 += -0x8
    2629:	bf 21 00 00 00 00 00 00	r1 = r2
    2630:	18 02 00 00 10 32 07 00 00 00 00 00 00 00 00 00	r2 = 0x73210 ll
    2632:	b7 03 00 00 06 00 00 00	r3 = 0x6
    2633:	18 05 00 00 d8 69 07 00 00 00 00 00 00 00 00 00	r5 = 0x769d8 ll
    2635:	05 00 0a 00 00 00 00 00	goto +0xa <.text+0x5190>
    2636:	07 01 00 00 01 00 00 00	r1 += 0x1
    2637:	7b 1a f8 ff 00 00 00 00	*(u64 *)(r10 - 0x8) = r1
    2638:	bf a4 00 00 00 00 00 00	r4 = r10
    2639:	07 04 00 00 f8 ff ff ff	r4 += -0x8
    2640:	bf 21 00 00 00 00 00 00	r1 = r2
    2641:	18 02 00 00 16 32 07 00 00 00 00 00 00 00 00 00	r2 = 0x73216 ll
    2643:	b7 03 00 00 07 00 00 00	r3 = 0x7
    2644:	18 05 00 00 f8 69 07 00 00 00 00 00 00 00 00 00	r5 = 0x769f8 ll
    2646:	85 10 00 00 ce c5 00 00	call 0xc5ce
    2647:	95 00 00 00 00 00 00 00	exit
    2648:	bf 23 00 00 00 00 00 00	r3 = r2
    2649:	79 11 00 00 00 00 00 00	r1 = *(u64 *)(r1 + 0x0)
    2650:	79 12 10 00 00 00 00 00	r2 = *(u64 *)(r1 + 0x10)
    2651:	79 11 00 00 00 00 00 00	r1 = *(u64 *)(r1 + 0x0)
    2652:	85 10 00 00 10 c6 00 00	call 0xc610
    2653:	95 00 00 00 00 00 00 00	exit
    2654:	79 17 00 00 00 00 00 00	r7 = *(u64 *)(r1 + 0x0)
    2655:	bf a6 00 00 00 00 00 00	r6 = r10
    2656:	07 06 00 00 d8 ff ff ff	r6 += -0x28
    2657:	bf 61 00 00 00 00 00 00	r1 = r6
    2658:	18 03 00 00 08 2f 07 00 00 00 00 00 00 00 00 00	r3 = 0x72f08 ll
    2660:	b7 04 00 00 00 00 00 00	r4 = 0x0
    2661:	85 10 00 00 ad c5 00 00	call 0xc5ad
    2662:	7b 7a f0 ff 00 00 00 00	*(u64 *)(r10 - 0x10) = r7
    2663:	07 07 00 00 20 00 00 00	r7 += 0x20
    2664:	7b 7a f8 ff 00 00 00 00	*(u64 *)(r10 - 0x8) = r7
    2665:	bf a2 00 00 00 00 00 00	r2 = r10
    2666:	07 02 00 00 f0 ff ff ff	r2 += -0x10
    2667:	bf 61 00 00 00 00 00 00	r1 = r6
    2668:	18 03 00 00 f8 67 07 00 00 00 00 00 00 00 00 00	r3 = 0x767f8 ll
    2670:	85 10 00 00 b0 c1 00 00	call 0xc1b0
    2671:	bf a2 00 00 00 00 00 00	r2 = r10
    2672:	07 02 00 00 f8 ff ff ff	r2 += -0x8
    2673:	bf 61 00 00 00 00 00 00	r1 = r6
    2674:	18 03 00 00 f8 67 07 00 00 00 00 00 00 00 00 00	r3 = 0x767f8 ll
    2676:	85 10 00 00 aa c1 00 00	call 0xc1aa
    2677:	bf 61 00 00 00 00 00 00	r1 = r6
    2678:	85 10 00 00 02 c2 00 00	call 0xc202
    2679:	95 00 00 00 00 00 00 00	exit
    2680:	79 11 00 00 00 00 00 00	r1 = *(u64 *)(r1 + 0x0)
    2681:	85 10 00 00 91 bf 00 00	call 0xbf91
    2682:	95 00 00 00 00 00 00 00	exit
    2683:	bf 23 00 00 00 00 00 00	r3 = r2
    2684:	bf 16 00 00 00 00 00 00	r6 = r1
    2685:	b7 01 00 00 01 00 00 00	r1 = 0x1
    2686:	7b 1a a0 ff 00 00 00 00	*(u64 *)(r10 - 0x60) = r1
    2687:	b7 01 00 00 00 00 00 00	r1 = 0x0
    2688:	7b 1a a8 ff 00 00 00 00	*(u64 *)(r10 - 0x58) = r1
    2689:	7b 1a b0 ff 00 00 00 00	*(u64 *)(r10 - 0x50) = r1
    2690:	b7 02 00 00 03 00 00 00	r2 = 0x3
    2691:	73 2a f0 ff 00 00 00 00	*(u8 *)(r10 - 0x10) = w2
    2692:	b7 02 00 00 20 00 00 00	r2 = 0x20
    2693:	7b 2a e8 ff 00 00 00 00	*(u64 *)(r10 - 0x18) = r2
    2694:	18 02 00 00 70 67 07 00 00 00 00 00 00 00 00 00	r2 = 0x76770 ll
    2696:	7b 2a e0 ff 00 00 00 00	*(u64 *)(r10 - 0x20) = r2
    2697:	bf a2 00 00 00 00 00 00	r2 = r10
    2698:	07 02 00 00 a0 ff ff ff	r2 += -0x60
    2699:	7b 2a d8 ff 00 00 00 00	*(u64 *)(r10 - 0x28) = r2
    2700:	7b 1a c8 ff 00 00 00 00	*(u64 *)(r10 - 0x38) = r1
    2701:	7b 1a b8 ff 00 00 00 00	*(u64 *)(r10 - 0x48) = r1
    2702:	bf a2 00 00 00 00 00 00	r2 = r10
    2703:	07 02 00 00 b8 ff ff ff	r2 += -0x48
    2704:	bf 31 00 00 00 00 00 00	r1 = r3
    2705:	85 10 00 00 cb af 00 00	call 0xafcb
    2706:	55 00 07 00 00 00 00 00	if r0 != 0x0 goto +0x7 <.text+0x53b0>
    2707:	79 a1 b0 ff 00 00 00 00	r1 = *(u64 *)(r10 - 0x50)
    2708:	7b 16 10 00 00 00 00 00	*(u64 *)(r6 + 0x10) = r1
    2709:	79 a1 a8 ff 00 00 00 00	r1 = *(u64 *)(r10 - 0x58)
    2710:	7b 16 08 00 00 00 00 00	*(u64 *)(r6 + 0x8) = r1
    2711:	79 a1 a0 ff 00 00 00 00	r1 = *(u64 *)(r10 - 0x60)
    2712:	7b 16 00 00 00 00 00 00	*(u64 *)(r6 + 0x0) = r1
    2713:	95 00 00 00 00 00 00 00	exit
    2714:	bf a3 00 00 00 00 00 00	r3 = r10
    2715:	07 03 00 00 ff ff ff ff	r3 += -0x1
    2716:	18 01 00 00 0a 2f 07 00 00 00 00 00 00 00 00 00	r1 = 0x72f0a ll
    2718:	b7 02 00 00 37 00 00 00	r2 = 0x37
    2719:	18 04 00 00 a0 67 07 00 00 00 00 00 00 00 00 00	r4 = 0x767a0 ll
    2721:	18 05 00 00 c0 67 07 00 00 00 00 00 00 00 00 00	r5 = 0x767c0 ll
    2723:	85 10 00 00 06 c0 00 00	call 0xc006
    2724:	85 10 00 00 ff ff ff ff	call -0x1
    2725:	61 23 34 00 00 00 00 00	w3 = *(u32 *)(r2 + 0x34)
    2726:	bf 34 00 00 00 00 00 00	r4 = r3
    2727:	57 04 00 00 10 00 00 00	r4 &= 0x10
    2728:	55 04 05 00 00 00 00 00	if r4 != 0x0 goto +0x5 <.text+0x5450>
    2729:	57 03 00 00 20 00 00 00	r3 &= 0x20
    2730:	15 03 01 00 00 00 00 00	if r3 == 0x0 goto +0x1 <.text+0x5440>
    2731:	05 00 04 00 00 00 00 00	goto +0x4 <.text+0x5460>
    2732:	85 10 00 00 84 cc 00 00	call 0xcc84
    2733:	05 00 03 00 00 00 00 00	goto +0x3 <.text+0x5468>
    2734:	85 10 00 00 c4 ca 00 00	call 0xcac4
    2735:	05 00 01 00 00 00 00 00	goto +0x1 <.text+0x5468>
    2736:	85 10 00 00 f0 ca 00 00	call 0xcaf0
    2737:	95 00 00 00 00 00 00 00	exit
    2738:	61 23 34 00 00 00 00 00	w3 = *(u32 *)(r2 + 0x34)
    2739:	bf 34 00 00 00 00 00 00	r4 = r3
    2740:	57 04 00 00 10 00 00 00	r4 &= 0x10
    2741:	55 04 05 00 00 00 00 00	if r4 != 0x0 goto +0x5 <.text+0x54b8>
    2742:	57 03 00 00 20 00 00 00	r3 &= 0x20
    2743:	15 03 01 00 00 00 00 00	if r3 == 0x0 goto +0x1 <.text+0x54a8>
    2744:	05 00 04 00 00 00 00 00	goto +0x4 <.text+0x54c8>
    2745:	85 10 00 00 8a cc 00 00	call 0xcc8a
    2746:	05 00 03 00 00 00 00 00	goto +0x3 <.text+0x54d0>
    2747:	85 10 00 00 13 cb 00 00	call 0xcb13
    2748:	05 00 01 00 00 00 00 00	goto +0x1 <.text+0x54d0>
    2749:	85 10 00 00 40 cb 00 00	call 0xcb40
    2750:	95 00 00 00 00 00 00 00	exit
    2751:	bf 23 00 00 00 00 00 00	r3 = r2
    2752:	18 02 00 00 70 67 07 00 00 00 00 00 00 00 00 00	r2 = 0x76770 ll
    2754:	85 10 00 00 68 c2 00 00	call 0xc268
    2755:	95 00 00 00 00 00 00 00	exit
    2756:	95 00 00 00 00 00 00 00	exit
    2757:	95 00 00 00 00 00 00 00	exit
    2758:	95 00 00 00 00 00 00 00	exit
    2759:	95 00 00 00 00 00 00 00	exit
    2760:	95 00 00 00 00 00 00 00	exit
    2761:	79 12 50 00 00 00 00 00	r2 = *(u64 *)(r1 + 0x50)
    2762:	79 13 48 00 00 00 00 00	r3 = *(u64 *)(r1 + 0x48)
    2763:	79 34 00 00 00 00 00 00	r4 = *(u64 *)(r3 + 0x0)
    2764:	07 04 00 00 ff ff ff ff	r4 += -0x1
    2765:	7b 43 00 00 00 00 00 00	*(u64 *)(r3 + 0x0) = r4
    2766:	55 04 03 00 00 00 00 00	if r4 != 0x0 goto +0x3 <.text+0x5570>
    2767:	79 34 08 00 00 00 00 00	r4 = *(u64 *)(r3 + 0x8)
    2768:	07 04 00 00 ff ff ff ff	r4 += -0x1
    2769:	7b 43 08 00 00 00 00 00	*(u64 *)(r3 + 0x8) = r4
    2770:	79 23 00 00 00 00 00 00	r3 = *(u64 *)(r2 + 0x0)
    2771:	07 03 00 00 ff ff ff ff	r3 += -0x1
    2772:	7b 32 00 00 00 00 00 00	*(u64 *)(r2 + 0x0) = r3
    2773:	55 03 03 00 00 00 00 00	if r3 != 0x0 goto +0x3 <.text+0x55a8>
    2774:	79 23 08 00 00 00 00 00	r3 = *(u64 *)(r2 + 0x8)
    2775:	07 03 00 00 ff ff ff ff	r3 += -0x1
    2776:	7b 32 08 00 00 00 00 00	*(u64 *)(r2 + 0x8) = r3
    2777:	79 12 80 00 00 00 00 00	r2 = *(u64 *)(r1 + 0x80)
    2778:	79 13 78 00 00 00 00 00	r3 = *(u64 *)(r1 + 0x78)
    2779:	79 34 00 00 00 00 00 00	r4 = *(u64 *)(r3 + 0x0)
    2780:	07 04 00 00 ff ff ff ff	r4 += -0x1
    2781:	7b 43 00 00 00 00 00 00	*(u64 *)(r3 + 0x0) = r4
    2782:	55 04 03 00 00 00 00 00	if r4 != 0x0 goto +0x3 <.text+0x55f0>
    2783:	79 34 08 00 00 00 00 00	r4 = *(u64 *)(r3 + 0x8)
    2784:	07 04 00 00 ff ff ff ff	r4 += -0x1
    2785:	7b 43 08 00 00 00 00 00	*(u64 *)(r3 + 0x8) = r4
    2786:	79 23 00 00 00 00 00 00	r3 = *(u64 *)(r2 + 0x0)
    2787:	07 03 00 00 ff ff ff ff	r3 += -0x1
    2788:	7b 32 00 00 00 00 00 00	*(u64 *)(r2 + 0x0) = r3
    2789:	55 03 03 00 00 00 00 00	if r3 != 0x0 goto +0x3 <.text+0x5628>
    2790:	79 23 08 00 00 00 00 00	r3 = *(u64 *)(r2 + 0x8)
    2791:	07 03 00 00 ff ff ff ff	r3 += -0x1
    2792:	7b 32 08 00 00 00 00 00	*(u64 *)(r2 + 0x8) = r3
    2793:	79 12 b0 00 00 00 00 00	r2 = *(u64 *)(r1 + 0xb0)
    2794:	79 13 a8 00 00 00 00 00	r3 = *(u64 *)(r1 + 0xa8)
    2795:	79 34 00 00 00 00 00 00	r4 = *(u64 *)(r3 + 0x0)
    2796:	07 04 00 00 ff ff ff ff	r4 += -0x1
    2797:	7b 43 00 00 00 00 00 00	*(u64 *)(r3 + 0x0) = r4
    2798:	55 04 03 00 00 00 00 00	if r4 != 0x0 goto +0x3 <.text+0x5670>
    2799:	79 34 08 00 00 00 00 00	r4 = *(u64 *)(r3 + 0x8)
    2800:	07 04 00 00 ff ff ff ff	r4 += -0x1
    2801:	7b 43 08 00 00 00 00 00	*(u64 *)(r3 + 0x8) = r4
    2802:	79 23 00 00 00 00 00 00	r3 = *(u64 *)(r2 + 0x0)
    2803:	07 03 00 00 ff ff ff ff	r3 += -0x1
    2804:	7b 32 00 00 00 00 00 00	*(u64 *)(r2 + 0x0) = r3
    2805:	55 03 03 00 00 00 00 00	if r3 != 0x0 goto +0x3 <.text+0x56a8>
    2806:	79 23 08 00 00 00 00 00	r3 = *(u64 *)(r2 + 0x8)
    2807:	07 03 00 00 ff ff ff ff	r3 += -0x1
    2808:	7b 32 08 00 00 00 00 00	*(u64 *)(r2 + 0x8) = r3
    2809:	79 12 e0 00 00 00 00 00	r2 = *(u64 *)(r1 + 0xe0)
    2810:	79 13 d8 00 00 00 00 00	r3 = *(u64 *)(r1 + 0xd8)
    2811:	79 34 00 00 00 00 00 00	r4 = *(u64 *)(r3 + 0x0)
    2812:	07 04 00 00 ff ff ff ff	r4 += -0x1
    2813:	7b 43 00 00 00 00 00 00	*(u64 *)(r3 + 0x0) = r4
    2814:	55 04 03 00 00 00 00 00	if r4 != 0x0 goto +0x3 <.text+0x56f0>
    2815:	79 34 08 00 00 00 00 00	r4 = *(u64 *)(r3 + 0x8)
    2816:	07 04 00 00 ff ff ff ff	r4 += -0x1
    2817:	7b 43 08 00 00 00 00 00	*(u64 *)(r3 + 0x8) = r4
    2818:	79 23 00 00 00 00 00 00	r3 = *(u64 *)(r2 + 0x0)
    2819:	07 03 00 00 ff ff ff ff	r3 += -0x1
    2820:	7b 32 00 00 00 00 00 00	*(u64 *)(r2 + 0x0) = r3
    2821:	55 03 03 00 00 00 00 00	if r3 != 0x0 goto +0x3 <.text+0x5728>
    2822:	79 23 08 00 00 00 00 00	r3 = *(u64 *)(r2 + 0x8)
    2823:	07 03 00 00 ff ff ff ff	r3 += -0x1
    2824:	7b 32 08 00 00 00 00 00	*(u64 *)(r2 + 0x8) = r3
    2825:	79 12 10 01 00 00 00 00	r2 = *(u64 *)(r1 + 0x110)
    2826:	79 11 08 01 00 00 00 00	r1 = *(u64 *)(r1 + 0x108)
    2827:	79 13 00 00 00 00 00 00	r3 = *(u64 *)(r1 + 0x0)
    2828:	07 03 00 00 ff ff ff ff	r3 += -0x1
    2829:	7b 31 00 00 00 00 00 00	*(u64 *)(r1 + 0x0) = r3
    2830:	55 03 03 00 00 00 00 00	if r3 != 0x0 goto +0x3 <.text+0x5770>
    2831:	79 13 08 00 00 00 00 00	r3 = *(u64 *)(r1 + 0x8)
    2832:	07 03 00 00 ff ff ff ff	r3 += -0x1
    2833:	7b 31 08 00 00 00 00 00	*(u64 *)(r1 + 0x8) = r3
    2834:	79 21 00 00 00 00 00 00	r1 = *(u64 *)(r2 + 0x0)
    2835:	07 01 00 00 ff ff ff ff	r1 += -0x1
    2836:	7b 12 00 00 00 00 00 00	*(u64 *)(r2 + 0x0) = r1
    2837:	55 01 03 00 00 00 00 00	if r1 != 0x0 goto +0x3 <.text+0x57a8>
    2838:	79 21 08 00 00 00 00 00	r1 = *(u64 *)(r2 + 0x8)
    2839:	07 01 00 00 ff ff ff ff	r1 += -0x1
    2840:	7b 12 08 00 00 00 00 00	*(u64 *)(r2 + 0x8) = r1
    2841:	95 00 00 00 00 00 00 00	exit
    2842:	79 12 08 00 00 00 00 00	r2 = *(u64 *)(r1 + 0x8)
    2843:	79 11 00 00 00 00 00 00	r1 = *(u64 *)(r1 + 0x0)
    2844:	55 01 05 00 00 00 00 00	if r1 != 0x0 goto +0x5 <.text+0x57f0>
    2845:	79 21 00 00 00 00 00 00	r1 = *(u64 *)(r2 + 0x0)
    2846:	15 01 00 00 02 00 00 00	if r1 == 0x2 goto +0x0 <.text+0x57d8>
    2847:	71 21 20 00 00 00 00 00	w1 = *(u8 *)(r2 + 0x20)
    2848:	55 01 05 00 00 00 00 00	if r1 != 0x0 goto +0x5 <.text+0x5810>
    2849:	05 00 04 00 00 00 00 00	goto +0x4 <.text+0x5810>
    2850:	79 21 00 00 00 00 00 00	r1 = *(u64 *)(r2 + 0x0)
    2851:	15 01 00 00 02 00 00 00	if r1 == 0x2 goto +0x0 <.text+0x5800>
    2852:	71 21 40 00 00 00 00 00	w1 = *(u8 *)(r2 + 0x40)
    2853:	55 01 00 00 00 00 00 00	if r1 != 0x0 goto +0x0 <.text+0x5810>
    2854:	95 00 00 00 00 00 00 00	exit
    2855:	79 12 48 00 00 00 00 00	r2 = *(u64 *)(r1 + 0x48)
    2856:	79 13 40 00 00 00 00 00	r3 = *(u64 *)(r1 + 0x40)
    2857:	79 34 00 00 00 00 00 00	r4 = *(u64 *)(r3 + 0x0)
    2858:	07 04 00 00 ff ff ff ff	r4 += -0x1
    2859:	7b 43 00 00 00 00 00 00	*(u64 *)(r3 + 0x0) = r4
    2860:	55 04 03 00 00 00 00 00	if r4 != 0x0 goto +0x3 <.text+0x5860>
    2861:	79 34 08 00 00 00 00 00	r4 = *(u64 *)(r3 + 0x8)
    2862:	07 04 00 00 ff ff ff ff	r4 += -0x1
    2863:	7b 43 08 00 00 00 00 00	*(u64 *)(r3 + 0x8) = r4
    2864:	79 23 00 00 00 00 00 00	r3 = *(u64 *)(r2 + 0x0)
    2865:	07 03 00 00 ff ff ff ff	r3 += -0x1
    2866:	7b 32 00 00 00 00 00 00	*(u64 *)(r2 + 0x0) = r3
    2867:	55 03 03 00 00 00 00 00	if r3 != 0x0 goto +0x3 <.text+0x5898>
    2868:	79 23 08 00 00 00 00 00	r3 = *(u64 *)(r2 + 0x8)
    2869:	07 03 00 00 ff ff ff ff	r3 += -0x1
    2870:	7b 32 08 00 00 00 00 00	*(u64 *)(r2 + 0x8) = r3
    2871:	79 12 78 00 00 00 00 00	r2 = *(u64 *)(r1 + 0x78)
    2872:	79 13 70 00 00 00 00 00	r3 = *(u64 *)(r1 + 0x70)
    2873:	79 34 00 00 00 00 00 00	r4 = *(u64 *)(r3 + 0x0)
    2874:	07 04 00 00 ff ff ff ff	r4 += -0x1
    2875:	7b 43 00 00 00 00 00 00	*(u64 *)(r3 + 0x0) = r4
    2876:	55 04 03 00 00 00 00 00	if r4 != 0x0 goto +0x3 <.text+0x58e0>
    2877:	79 34 08 00 00 00 00 00	r4 = *(u64 *)(r3 + 0x8)
    2878:	07 04 00 00 ff ff ff ff	r4 += -0x1
    2879:	7b 43 08 00 00 00 00 00	*(u64 *)(r3 + 0x8) = r4
    2880:	79 23 00 00 00 00 00 00	r3 = *(u64 *)(r2 + 0x0)
    2881:	07 03 00 00 ff ff ff ff	r3 += -0x1
    2882:	7b 32 00 00 00 00 00 00	*(u64 *)(r2 + 0x0) = r3
    2883:	55 03 03 00 00 00 00 00	if r3 != 0x0 goto +0x3 <.text+0x5918>
    2884:	79 23 08 00 00 00 00 00	r3 = *(u64 *)(r2 + 0x8)
    2885:	07 03 00 00 ff ff ff ff	r3 += -0x1
    2886:	7b 32 08 00 00 00 00 00	*(u64 *)(r2 + 0x8) = r3
    2887:	79 12 a8 00 00 00 00 00	r2 = *(u64 *)(r1 + 0xa8)
    2888:	79 13 a0 00 00 00 00 00	r3 = *(u64 *)(r1 + 0xa0)
    2889:	79 34 00 00 00 00 00 00	r4 = *(u64 *)(r3 + 0x0)
    2890:	07 04 00 00 ff ff ff ff	r4 += -0x1
    2891:	7b 43 00 00 00 00 00 00	*(u64 *)(r3 + 0x0) = r4
    2892:	55 04 03 00 00 00 00 00	if r4 != 0x0 goto +0x3 <.text+0x5960>
    2893:	79 34 08 00 00 00 00 00	r4 = *(u64 *)(r3 + 0x8)
    2894:	07 04 00 00 ff ff ff ff	r4 += -0x1
    2895:	7b 43 08 00 00 00 00 00	*(u64 *)(r3 + 0x8) = r4
    2896:	79 23 00 00 00 00 00 00	r3 = *(u64 *)(r2 + 0x0)
    2897:	07 03 00 00 ff ff ff ff	r3 += -0x1
    2898:	7b 32 00 00 00 00 00 00	*(u64 *)(r2 + 0x0) = r3
    2899:	55 03 03 00 00 00 00 00	if r3 != 0x0 goto +0x3 <.text+0x5998>
    2900:	79 23 08 00 00 00 00 00	r3 = *(u64 *)(r2 + 0x8)
    2901:	07 03 00 00 ff ff ff ff	r3 += -0x1
    2902:	7b 32 08 00 00 00 00 00	*(u64 *)(r2 + 0x8) = r3
    2903:	79 12 d8 00 00 00 00 00	r2 = *(u64 *)(r1 + 0xd8)
    2904:	79 13 d0 00 00 00 00 00	r3 = *(u64 *)(r1 + 0xd0)
    2905:	79 34 00 00 00 00 00 00	r4 = *(u64 *)(r3 + 0x0)
    2906:	07 04 00 00 ff ff ff ff	r4 += -0x1
    2907:	7b 43 00 00 00 00 00 00	*(u64 *)(r3 + 0x0) = r4
    2908:	55 04 03 00 00 00 00 00	if r4 != 0x0 goto +0x3 <.text+0x59e0>
    2909:	79 34 08 00 00 00 00 00	r4 = *(u64 *)(r3 + 0x8)
    2910:	07 04 00 00 ff ff ff ff	r4 += -0x1
    2911:	7b 43 08 00 00 00 00 00	*(u64 *)(r3 + 0x8) = r4
    2912:	79 23 00 00 00 00 00 00	r3 = *(u64 *)(r2 + 0x0)
    2913:	07 03 00 00 ff ff ff ff	r3 += -0x1
    2914:	7b 32 00 00 00 00 00 00	*(u64 *)(r2 + 0x0) = r3
    2915:	55 03 03 00 00 00 00 00	if r3 != 0x0 goto +0x3 <.text+0x5a18>
    2916:	79 23 08 00 00 00 00 00	r3 = *(u64 *)(r2 + 0x8)
    2917:	07 03 00 00 ff ff ff ff	r3 += -0x1
    2918:	7b 32 08 00 00 00 00 00	*(u64 *)(r2 + 0x8) = r3
    2919:	79 12 08 01 00 00 00 00	r2 = *(u64 *)(r1 + 0x108)
    2920:	79 11 00 01 00 00 00 00	r1 = *(u64 *)(r1 + 0x100)
    2921:	79 13 00 00 00 00 00 00	r3 = *(u64 *)(r1 + 0x0)
    2922:	07 03 00 00 ff ff ff ff	r3 += -0x1
    2923:	7b 31 00 00 00 00 00 00	*(u64 *)(r1 + 0x0) = r3
    2924:	55 03 03 00 00 00 00 00	if r3 != 0x0 goto +0x3 <.text+0x5a60>
    2925:	79 13 08 00 00 00 00 00	r3 = *(u64 *)(r1 + 0x8)
    2926:	07 03 00 00 ff ff ff ff	r3 += -0x1
    2927:	7b 31 08 00 00 00 00 00	*(u64 *)(r1 + 0x8) = r3
    2928:	79 21 00 00 00 00 00 00	r1 = *(u64 *)(r2 + 0x0)
    2929:	07 01 00 00 ff ff ff ff	r1 += -0x1
    2930:	7b 12 00 00 00 00 00 00	*(u64 *)(r2 + 0x0) = r1
    2931:	55 01 03 00 00 00 00 00	if r1 != 0x0 goto +0x3 <.text+0x5a98>
    2932:	79 21 08 00 00 00 00 00	r1 = *(u64 *)(r2 + 0x8)
    2933:	07 01 00 00 ff ff ff ff	r1 += -0x1
    2934:	7b 12 08 00 00 00 00 00	*(u64 *)(r2 + 0x8) = r1
    2935:	95 00 00 00 00 00 00 00	exit
    2936:	95 00 00 00 00 00 00 00	exit
    2937:	95 00 00 00 00 00 00 00	exit
    2938:	79 12 18 00 00 00 00 00	r2 = *(u64 *)(r1 + 0x18)
    2939:	79 13 10 00 00 00 00 00	r3 = *(u64 *)(r1 + 0x10)
    2940:	79 34 00 00 00 00 00 00	r4 = *(u64 *)(r3 + 0x0)
    2941:	07 04 00 00 ff ff ff ff	r4 += -0x1
    2942:	7b 43 00 00 00 00 00 00	*(u64 *)(r3 + 0x0) = r4
    2943:	55 04 03 00 00 00 00 00	if r4 != 0x0 goto +0x3 <.text+0x5af8>
    2944:	79 34 08 00 00 00 00 00	r4 = *(u64 *)(r3 + 0x8)
    2945:	07 04 00 00 ff ff ff ff	r4 += -0x1
    2946:	7b 43 08 00 00 00 00 00	*(u64 *)(r3 + 0x8) = r4
    2947:	79 23 00 00 00 00 00 00	r3 = *(u64 *)(r2 + 0x0)
    2948:	07 03 00 00 ff ff ff ff	r3 += -0x1
    2949:	7b 32 00 00 00 00 00 00	*(u64 *)(r2 + 0x0) = r3
    2950:	55 03 03 00 00 00 00 00	if r3 != 0x0 goto +0x3 <.text+0x5b30>
    2951:	79 23 08 00 00 00 00 00	r3 = *(u64 *)(r2 + 0x8)
    2952:	07 03 00 00 ff ff ff ff	r3 += -0x1
    2953:	7b 32 08 00 00 00 00 00	*(u64 *)(r2 + 0x8) = r3
    2954:	79 12 48 00 00 00 00 00	r2 = *(u64 *)(r1 + 0x48)
    2955:	79 13 40 00 00 00 00 00	r3 = *(u64 *)(r1 + 0x40)
    2956:	79 34 00 00 00 00 00 00	r4 = *(u64 *)(r3 + 0x0)
    2957:	07 04 00 00 ff ff ff ff	r4 += -0x1
    2958:	7b 43 00 00 00 00 00 00	*(u64 *)(r3 + 0x0) = r4
    2959:	55 04 03 00 00 00 00 00	if r4 != 0x0 goto +0x3 <.text+0x5b78>
    2960:	79 34 08 00 00 00 00 00	r4 = *(u64 *)(r3 + 0x8)
    2961:	07 04 00 00 ff ff ff ff	r4 += -0x1
    2962:	7b 43 08 00 00 00 00 00	*(u64 *)(r3 + 0x8) = r4
    2963:	79 23 00 00 00 00 00 00	r3 = *(u64 *)(r2 + 0x0)
    2964:	07 03 00 00 ff ff ff ff	r3 += -0x1
    2965:	7b 32 00 00 00 00 00 00	*(u64 *)(r2 + 0x0) = r3
    2966:	55 03 03 00 00 00 00 00	if r3 != 0x0 goto +0x3 <.text+0x5bb0>
    2967:	79 23 08 00 00 00 00 00	r3 = *(u64 *)(r2 + 0x8)
    2968:	07 03 00 00 ff ff ff ff	r3 += -0x1
    2969:	7b 32 08 00 00 00 00 00	*(u64 *)(r2 + 0x8) = r3
    2970:	79 12 78 00 00 00 00 00	r2 = *(u64 *)(r1 + 0x78)
    2971:	79 13 70 00 00 00 00 00	r3 = *(u64 *)(r1 + 0x70)
    2972:	79 34 00 00 00 00 00 00	r4 = *(u64 *)(r3 + 0x0)
    2973:	07 04 00 00 ff ff ff ff	r4 += -0x1
    2974:	7b 43 00 00 00 00 00 00	*(u64 *)(r3 + 0x0) = r4
    2975:	55 04 03 00 00 00 00 00	if r4 != 0x0 goto +0x3 <.text+0x5bf8>
    2976:	79 34 08 00 00 00 00 00	r4 = *(u64 *)(r3 + 0x8)
    2977:	07 04 00 00 ff ff ff ff	r4 += -0x1
    2978:	7b 43 08 00 00 00 00 00	*(u64 *)(r3 + 0x8) = r4
    2979:	79 23 00 00 00 00 00 00	r3 = *(u64 *)(r2 + 0x0)
    2980:	07 03 00 00 ff ff ff ff	r3 += -0x1
    2981:	7b 32 00 00 00 00 00 00	*(u64 *)(r2 + 0x0) = r3
    2982:	55 03 03 00 00 00 00 00	if r3 != 0x0 goto +0x3 <.text+0x5c30>
    2983:	79 23 08 00 00 00 00 00	r3 = *(u64 *)(r2 + 0x8)
    2984:	07 03 00 00 ff ff ff ff	r3 += -0x1
    2985:	7b 32 08 00 00 00 00 00	*(u64 *)(r2 + 0x8) = r3
    2986:	79 12 a8 00 00 00 00 00	r2 = *(u64 *)(r1 + 0xa8)
    2987:	79 11 a0 00 00 00 00 00	r1 = *(u64 *)(r1 + 0xa0)
    2988:	79 13 00 00 00 00 00 00	r3 = *(u64 *)(r1 + 0x0)
    2989:	07 03 00 00 ff ff ff ff	r3 += -0x1
    2990:	7b 31 00 00 00 00 00 00	*(u64 *)(r1 + 0x0) = r3
    2991:	55 03 03 00 00 00 00 00	if r3 != 0x0 goto +0x3 <.text+0x5c78>
    2992:	79 13 08 00 00 00 00 00	r3 = *(u64 *)(r1 + 0x8)
    2993:	07 03 00 00 ff ff ff ff	r3 += -0x1
    2994:	7b 31 08 00 00 00 00 00	*(u64 *)(r1 + 0x8) = r3
    2995:	79 21 00 00 00 00 00 00	r1 = *(u64 *)(r2 + 0x0)
    2996:	07 01 00 00 ff ff ff ff	r1 += -0x1
    2997:	7b 12 00 00 00 00 00 00	*(u64 *)(r2 + 0x0) = r1
    2998:	55 01 03 00 00 00 00 00	if r1 != 0x0 goto +0x3 <.text+0x5cb0>
    2999:	79 21 08 00 00 00 00 00	r1 = *(u64 *)(r2 + 0x8)
    3000:	07 01 00 00 ff ff ff ff	r1 += -0x1
    3001:	7b 12 08 00 00 00 00 00	*(u64 *)(r2 + 0x8) = r1
    3002:	95 00 00 00 00 00 00 00	exit
    3003:	79 11 00 00 00 00 00 00	r1 = *(u64 *)(r1 + 0x0)
    3004:	55 01 00 00 02 00 00 00	if r1 != 0x2 goto +0x0 <.text+0x5cc8>
    3005:	95 00 00 00 00 00 00 00	exit
    3006:	79 12 10 00 00 00 00 00	r2 = *(u64 *)(r1 + 0x10)
    3007:	79 13 08 00 00 00 00 00	r3 = *(u64 *)(r1 + 0x8)
    3008:	79 34 00 00 00 00 00 00	r4 = *(u64 *)(r3 + 0x0)
    3009:	07 04 00 00 ff ff ff ff	r4 += -0x1
    3010:	7b 43 00 00 00 00 00 00	*(u64 *)(r3 + 0x0) = r4
    3011:	55 04 03 00 00 00 00 00	if r4 != 0x0 goto +0x3 <.text+0x5d18>
    3012:	79 34 08 00 00 00 00 00	r4 = *(u64 *)(r3 + 0x8)
    3013:	07 04 00 00 ff ff ff ff	r4 += -0x1
    3014:	7b 43 08 00 00 00 00 00	*(u64 *)(r3 + 0x8) = r4
    3015:	79 23 00 00 00 00 00 00	r3 = *(u64 *)(r2 + 0x0)
    3016:	07 03 00 00 ff ff ff ff	r3 += -0x1
    3017:	7b 32 00 00 00 00 00 00	*(u64 *)(r2 + 0x0) = r3
    3018:	55 03 03 00 00 00 00 00	if r3 != 0x0 goto +0x3 <.text+0x5d50>
    3019:	79 23 08 00 00 00 00 00	r3 = *(u64 *)(r2 + 0x8)
    3020:	07 03 00 00 ff ff ff ff	r3 += -0x1
    3021:	7b 32 08 00 00 00 00 00	*(u64 *)(r2 + 0x8) = r3
    3022:	79 12 40 00 00 00 00 00	r2 = *(u64 *)(r1 + 0x40)
    3023:	79 13 38 00 00 00 00 00	r3 = *(u64 *)(r1 + 0x38)
    3024:	79 34 00 00 00 00 00 00	r4 = *(u64 *)(r3 + 0x0)
    3025:	07 04 00 00 ff ff ff ff	r4 += -0x1
    3026:	7b 43 00 00 00 00 00 00	*(u64 *)(r3 + 0x0) = r4
    3027:	55 04 03 00 00 00 00 00	if r4 != 0x0 goto +0x3 <.text+0x5d98>
    3028:	79 34 08 00 00 00 00 00	r4 = *(u64 *)(r3 + 0x8)
    3029:	07 04 00 00 ff ff ff ff	r4 += -0x1
    3030:	7b 43 08 00 00 00 00 00	*(u64 *)(r3 + 0x8) = r4
    3031:	79 23 00 00 00 00 00 00	r3 = *(u64 *)(r2 + 0x0)
    3032:	07 03 00 00 ff ff ff ff	r3 += -0x1
    3033:	7b 32 00 00 00 00 00 00	*(u64 *)(r2 + 0x0) = r3
    3034:	55 03 03 00 00 00 00 00	if r3 != 0x0 goto +0x3 <.text+0x5dd0>
    3035:	79 23 08 00 00 00 00 00	r3 = *(u64 *)(r2 + 0x8)
    3036:	07 03 00 00 ff ff ff ff	r3 += -0x1
    3037:	7b 32 08 00 00 00 00 00	*(u64 *)(r2 + 0x8) = r3
    3038:	79 12 70 00 00 00 00 00	r2 = *(u64 *)(r1 + 0x70)
    3039:	79 13 68 00 00 00 00 00	r3 = *(u64 *)(r1 + 0x68)
    3040:	79 34 00 00 00 00 00 00	r4 = *(u64 *)(r3 + 0x0)
    3041:	07 04 00 00 ff ff ff ff	r4 += -0x1
    3042:	7b 43 00 00 00 00 00 00	*(u64 *)(r3 + 0x0) = r4
    3043:	55 04 03 00 00 00 00 00	if r4 != 0x0 goto +0x3 <.text+0x5e18>
    3044:	79 34 08 00 00 00 00 00	r4 = *(u64 *)(r3 + 0x8)
    3045:	07 04 00 00 ff ff ff ff	r4 += -0x1
    3046:	7b 43 08 00 00 00 00 00	*(u64 *)(r3 + 0x8) = r4
    3047:	79 23 00 00 00 00 00 00	r3 = *(u64 *)(r2 + 0x0)
    3048:	07 03 00 00 ff ff ff ff	r3 += -0x1
    3049:	7b 32 00 00 00 00 00 00	*(u64 *)(r2 + 0x0) = r3
    3050:	55 03 03 00 00 00 00 00	if r3 != 0x0 goto +0x3 <.text+0x5e50>
    3051:	79 23 08 00 00 00 00 00	r3 = *(u64 *)(r2 + 0x8)
    3052:	07 03 00 00 ff ff ff ff	r3 += -0x1
    3053:	7b 32 08 00 00 00 00 00	*(u64 *)(r2 + 0x8) = r3
    3054:	79 12 a0 00 00 00 00 00	r2 = *(u64 *)(r1 + 0xa0)
    3055:	79 11 98 00 00 00 00 00	r1 = *(u64 *)(r1 + 0x98)
    3056:	79 13 00 00 00 00 00 00	r3 = *(u64 *)(r1 + 0x0)
    3057:	07 03 00 00 ff ff ff ff	r3 += -0x1
    3058:	7b 31 00 00 00 00 00 00	*(u64 *)(r1 + 0x0) = r3
    3059:	55 03 03 00 00 00 00 00	if r3 != 0x0 goto +0x3 <.text+0x5e98>
    3060:	79 13 08 00 00 00 00 00	r3 = *(u64 *)(r1 + 0x8)
    3061:	07 03 00 00 ff ff ff ff	r3 += -0x1
    3062:	7b 31 08 00 00 00 00 00	*(u64 *)(r1 + 0x8) = r3
    3063:	79 21 00 00 00 00 00 00	r1 = *(u64 *)(r2 + 0x0)
    3064:	07 01 00 00 ff ff ff ff	r1 += -0x1
    3065:	7b 12 00 00 00 00 00 00	*(u64 *)(r2 + 0x0) = r1
    3066:	55 01 03 00 00 00 00 00	if r1 != 0x0 goto +0x3 <.text+0x5ed0>
    3067:	79 21 08 00 00 00 00 00	r1 = *(u64 *)(r2 + 0x8)
    3068:	07 01 00 00 ff ff ff ff	r1 += -0x1
    3069:	7b 12 08 00 00 00 00 00	*(u64 *)(r2 + 0x8) = r1
    3070:	95 00 00 00 00 00 00 00	exit
    3071:	79 12 00 00 00 00 00 00	r2 = *(u64 *)(r1 + 0x0)
    3072:	15 02 34 00 00 00 00 00	if r2 == 0x0 goto +0x34 <.text+0x6088>
    3073:	79 13 08 00 00 00 00 00	r3 = *(u64 *)(r1 + 0x8)
    3074:	79 11 10 00 00 00 00 00	r1 = *(u64 *)(r1 + 0x10)
    3075:	15 01 2a 00 00 00 00 00	if r1 == 0x0 goto +0x2a <.text+0x6050>
    3076:	bf 20 00 00 00 00 00 00	r0 = r2
    3077:	b7 02 00 00 00 00 00 00	r2 = 0x0
    3078:	05 00 03 00 00 00 00 00	goto +0x3 <.text+0x5f30>
    3079:	07 01 00 00 ff ff ff ff	r1 += -0x1
    3080:	b7 00 00 00 00 00 00 00	r0 = 0x0
    3081:	15 01 28 00 00 00 00 00	if r1 == 0x0 goto +0x28 <.text+0x6070>
    3082:	bf 35 00 00 00 00 00 00	r5 = r3
    3083:	bf 04 00 00 00 00 00 00	r4 = r0
    3084:	55 02 09 00 00 00 00 00	if r2 != 0x0 goto +0x9 <.text+0x5f90>
    3085:	b7 05 00 00 00 00 00 00	r5 = 0x0
    3086:	b7 04 00 00 00 00 00 00	r4 = 0x0
    3087:	bf 02 00 00 00 00 00 00	r2 = r0
    3088:	15 03 05 00 00 00 00 00	if r3 == 0x0 goto +0x5 <.text+0x5f90>
    3089:	bf 02 00 00 00 00 00 00	r2 = r0
    3090:	79 22 70 01 00 00 00 00	r2 = *(u64 *)(r2 + 0x170)
    3091:	07 03 00 00 ff ff ff ff	r3 += -0x1
    3092:	b7 04 00 00 00 00 00 00	r4 = 0x0
    3093:	55 03 fc ff 00 00 00 00	if r3 != 0x0 goto -0x4 <.text+0x5f70>
    3094:	69 23 6a 01 00 00 00 00	w3 = *(u16 *)(r2 + 0x16a)
    3095:	2d 53 09 00 00 00 00 00	if r3 > r5 goto +0x9 <.text+0x5fe8>
    3096:	79 23 60 01 00 00 00 00	r3 = *(u64 *)(r2 + 0x160)
    3097:	15 03 1c 00 00 00 00 00	if r3 == 0x0 goto +0x1c <.text+0x6090>
    3098:	07 04 00 00 01 00 00 00	r4 += 0x1
    3099:	69 25 68 01 00 00 00 00	w5 = *(u16 *)(r2 + 0x168)
    3100:	69 30 6a 01 00 00 00 00	w0 = *(u16 *)(r3 + 0x16a)
    3101:	bf 32 00 00 00 00 00 00	r2 = r3
    3102:	2d 50 01 00 00 00 00 00	if r0 > r5 goto +0x1 <.text+0x5fe0>
    3103:	05 00 f8 ff 00 00 00 00	goto -0x8 <.text+0x5fa0>
    3104:	bf 32 00 00 00 00 00 00	r2 = r3
    3105:	07 05 00 00 01 00 00 00	r5 += 0x1
    3106:	bf 53 00 00 00 00 00 00	r3 = r5
    3107:	15 04 e3 ff 00 00 00 00	if r4 == 0x0 goto -0x1d <.text+0x5f18>
    3108:	67 05 00 00 03 00 00 00	r5 <<= 0x3
    3109:	0f 52 00 00 00 00 00 00	r2 += r5
    3110:	b7 03 00 00 00 00 00 00	r3 = 0x0
    3111:	79 22 70 01 00 00 00 00	r2 = *(u64 *)(r2 + 0x170)
    3112:	07 04 00 00 ff ff ff ff	r4 += -0x1
    3113:	15 04 dd ff 00 00 00 00	if r4 == 0x0 goto -0x23 <.text+0x5f18>
    3114:	79 22 70 01 00 00 00 00	r2 = *(u64 *)(r2 + 0x170)
    3115:	07 04 00 00 ff ff ff ff	r4 += -0x1
    3116:	15 04 da ff 00 00 00 00	if r4 == 0x0 goto -0x26 <.text+0x5f18>
    3117:	05 00 fc ff 00 00 00 00	goto -0x4 <.text+0x6030>
    3118:	15 03 03 00 00 00 00 00	if r3 == 0x0 goto +0x3 <.text+0x6070>
    3119:	79 22 70 01 00 00 00 00	r2 = *(u64 *)(r2 + 0x170)
    3120:	07 03 00 00 ff ff ff ff	r3 += -0x1
    3121:	55 03 fd ff 00 00 00 00	if r3 != 0x0 goto -0x3 <.text+0x6058>
    3122:	79 22 60 01 00 00 00 00	r2 = *(u64 *)(r2 + 0x160)
    3123:	15 02 01 00 00 00 00 00	if r2 == 0x0 goto +0x1 <.text+0x6088>
    3124:	05 00 fd ff 00 00 00 00	goto -0x3 <.text+0x6070>
    3125:	95 00 00 00 00 00 00 00	exit
    3126:	18 01 00 00 ad 2f 07 00 00 00 00 00 00 00 00 00	r1 = 0x72fad ll
    3128:	b7 02 00 00 2b 00 00 00	r2 = 0x2b
    3129:	18 03 00 00 40 68 07 00 00 00 00 00 00 00 00 00	r3 = 0x76840 ll
    3131:	85 10 00 00 41 be 00 00	call 0xbe41
    3132:	85 10 00 00 ff ff ff ff	call -0x1
    3133:	b7 02 00 00 00 00 00 00	r2 = 0x0
    3134:	7b 21 00 00 00 00 00 00	*(u64 *)(r1 + 0x0) = r2
    3135:	95 00 00 00 00 00 00 00	exit
    3136:	95 00 00 00 00 00 00 00	exit
    3137:	18 02 00 00 41 7f af d2 00 00 00 00 37 31 50 40	r2 = 0x40503137d2af7f41 ll
    3139:	7b 21 08 00 00 00 00 00	*(u64 *)(r1 + 0x8) = r2
    3140:	18 02 00 00 ea 65 bc 84 00 00 00 00 85 1c 12 5e	r2 = 0x5e121c8584bc65ea ll
    3142:	7b 21 00 00 00 00 00 00	*(u64 *)(r1 + 0x0) = r2
    3143:	95 00 00 00 00 00 00 00	exit
    3144:	bf 16 00 00 00 00 00 00	r6 = r1
    3145:	61 21 00 00 00 00 00 00	w1 = *(u32 *)(r2 + 0x0)
    3146:	15 01 17 00 02 00 00 00	if r1 == 0x2 goto +0x17 <.text+0x61f0>
    3147:	18 01 00 00 00 00 00 00 00 00 00 00 03 00 00 00	r1 = 0x300000000 ll
    3149:	79 11 00 00 00 00 00 00	r1 = *(u64 *)(r1 + 0x0)
    3150:	bf 14 00 00 00 00 00 00	r4 = r1
    3151:	07 04 00 00 a0 ff ff ff	r4 += -0x60
    3152:	b7 03 00 00 00 00 00 00	r3 = 0x0
    3153:	b7 05 00 00 01 00 00 00	r5 = 0x1
    3154:	2d 14 01 00 00 00 00 00	if r4 > r1 goto +0x1 <.text+0x6180>
    3155:	b7 05 00 00 00 00 00 00	r5 = 0x0
    3156:	55 05 01 00 00 00 00 00	if r5 != 0x0 goto +0x1 <.text+0x6190>
    3157:	bf 43 00 00 00 00 00 00	r3 = r4
    3158:	18 07 00 00 a0 7f 00 00 00 00 00 00 03 00 00 00	r7 = 0x300007fa0 ll
    3160:	15 01 02 00 00 00 00 00	if r1 == 0x0 goto +0x2 <.text+0x61b8>
    3161:	57 03 00 00 f8 ff ff ff	r3 &= -0x8
    3162:	bf 37 00 00 00 00 00 00	r7 = r3
    3163:	18 01 00 00 07 00 00 00 00 00 00 00 03 00 00 00	r1 = 0x300000007 ll
    3165:	2d 17 08 00 00 00 00 00	if r7 > r1 goto +0x8 <.text+0x6210>
    3166:	b7 01 00 00 08 00 00 00	r1 = 0x8
    3167:	b7 02 00 00 60 00 00 00	r2 = 0x60
    3168:	85 10 00 00 18 bb 00 00	call 0xbb18
    3169:	85 10 00 00 ff ff ff ff	call -0x1
    3170:	79 21 08 00 00 00 00 00	r1 = *(u64 *)(r2 + 0x8)
    3171:	79 22 10 00 00 00 00 00	r2 = *(u64 *)(r2 + 0x10)
    3172:	7b 26 08 00 00 00 00 00	*(u64 *)(r6 + 0x8) = r2
    3173:	05 00 08 00 00 00 00 00	goto +0x8 <.text+0x6250>
    3174:	18 01 00 00 00 00 00 00 00 00 00 00 03 00 00 00	r1 = 0x300000000 ll
    3176:	7b 71 00 00 00 00 00 00	*(u64 *)(r1 + 0x0) = r7
    3177:	bf 71 00 00 00 00 00 00	r1 = r7
    3178:	b7 03 00 00 60 00 00 00	r3 = 0x60
    3179:	85 10 00 00 54 cb 00 00	call 0xcb54
    3180:	7b 76 08 00 00 00 00 00	*(u64 *)(r6 + 0x8) = r7
    3181:	b7 01 00 00 02 00 00 00	r1 = 0x2
    3182:	7b 16 00 00 00 00 00 00	*(u64 *)(r6 + 0x0) = r1
    3183:	95 00 00 00 00 00 00 00	exit
    3184:	bf 16 00 00 00 00 00 00	r6 = r1
    3185:	61 21 90 00 00 00 00 00	w1 = *(u32 *)(r2 + 0x90)
    3186:	15 01 17 00 02 00 00 00	if r1 == 0x2 goto +0x17 <.text+0x6330>
    3187:	18 01 00 00 00 00 00 00 00 00 00 00 03 00 00 00	r1 = 0x300000000 ll
    3189:	79 11 00 00 00 00 00 00	r1 = *(u64 *)(r1 + 0x0)
    3190:	bf 14 00 00 00 00 00 00	r4 = r1
    3191:	07 04 00 00 48 ff ff ff	r4 += -0xb8
    3192:	b7 03 00 00 00 00 00 00	r3 = 0x0
    3193:	b7 05 00 00 01 00 00 00	r5 = 0x1
    3194:	2d 14 01 00 00 00 00 00	if r4 > r1 goto +0x1 <.text+0x62c0>
    3195:	b7 05 00 00 00 00 00 00	r5 = 0x0
    3196:	55 05 01 00 00 00 00 00	if r5 != 0x0 goto +0x1 <.text+0x62d0>
    3197:	bf 43 00 00 00 00 00 00	r3 = r4
    3198:	18 07 00 00 48 7f 00 00 00 00 00 00 03 00 00 00	r7 = 0x300007f48 ll
    3200:	15 01 02 00 00 00 00 00	if r1 == 0x0 goto +0x2 <.text+0x62f8>
    3201:	57 03 00 00 f8 ff ff ff	r3 &= -0x8
    3202:	bf 37 00 00 00 00 00 00	r7 = r3
    3203:	18 01 00 00 07 00 00 00 00 00 00 00 03 00 00 00	r1 = 0x300000007 ll
    3205:	2d 17 08 00 00 00 00 00	if r7 > r1 goto +0x8 <.text+0x6350>
    3206:	b7 01 00 00 08 00 00 00	r1 = 0x8
    3207:	b7 02 00 00 b8 00 00 00	r2 = 0xb8
    3208:	85 10 00 00 f0 ba 00 00	call 0xbaf0
    3209:	85 10 00 00 ff ff ff ff	call -0x1
    3210:	79 21 00 00 00 00 00 00	r1 = *(u64 *)(r2 + 0x0)
    3211:	79 22 08 00 00 00 00 00	r2 = *(u64 *)(r2 + 0x8)
    3212:	7b 26 08 00 00 00 00 00	*(u64 *)(r6 + 0x8) = r2
    3213:	05 00 08 00 00 00 00 00	goto +0x8 <.text+0x6390>
    3214:	18 01 00 00 00 00 00 00 00 00 00 00 03 00 00 00	r1 = 0x300000000 ll
    3216:	7b 71 00 00 00 00 00 00	*(u64 *)(r1 + 0x0) = r7
    3217:	bf 71 00 00 00 00 00 00	r1 = r7
    3218:	b7 03 00 00 b8 00 00 00	r3 = 0xb8
    3219:	85 10 00 00 2c cb 00 00	call 0xcb2c
    3220:	7b 76 08 00 00 00 00 00	*(u64 *)(r6 + 0x8) = r7
    3221:	b7 01 00 00 02 00 00 00	r1 = 0x2
    3222:	7b 16 00 00 00 00 00 00	*(u64 *)(r6 + 0x0) = r1
    3223:	95 00 00 00 00 00 00 00	exit
    3224:	bf 16 00 00 00 00 00 00	r6 = r1
    3225:	71 21 00 00 00 00 00 00	w1 = *(u8 *)(r2 + 0x0)
    3226:	55 01 0a 00 00 00 00 00	if r1 != 0x0 goto +0xa <.text+0x6408>
    3227:	79 21 19 00 00 00 00 00	r1 = *(u64 *)(r2 + 0x19)
    3228:	7b 16 19 00 00 00 00 00	*(u64 *)(r6 + 0x19) = r1
    3229:	79 21 11 00 00 00 00 00	r1 = *(u64 *)(r2 + 0x11)
    3230:	7b 16 11 00 00 00 00 00	*(u64 *)(r6 + 0x11) = r1
    3231:	79 21 09 00 00 00 00 00	r1 = *(u64 *)(r2 + 0x9)
    3232:	7b 16 09 00 00 00 00 00	*(u64 *)(r6 + 0x9) = r1
    3233:	79 21 01 00 00 00 00 00	r1 = *(u64 *)(r2 + 0x1)
    3234:	7b 16 01 00 00 00 00 00	*(u64 *)(r6 + 0x1) = r1
    3235:	b7 01 00 00 00 00 00 00	r1 = 0x0
    3236:	05 00 11 00 00 00 00 00	goto +0x11 <.text+0x6490>
    3237:	bf a1 00 00 00 00 00 00	r1 = r10
    3238:	07 01 00 00 f0 ff ff ff	r1 += -0x10
    3239:	b7 02 00 00 d6 07 00 00	r2 = 0x7d6
    3240:	85 10 00 00 ce a7 00 00	call 0xa7ce
    3241:	79 a3 f8 ff 00 00 00 00	r3 = *(u64 *)(r10 - 0x8)
    3242:	79 a2 f0 ff 00 00 00 00	r2 = *(u64 *)(r10 - 0x10)
    3243:	bf a1 00 00 00 00 00 00	r1 = r10
    3244:	07 01 00 00 e0 ff ff ff	r1 += -0x20
    3245:	18 04 00 00 b5 3a 07 00 00 00 00 00 00 00 00 00	r4 = 0x73ab5 ll
    3247:	b7 05 00 00 09 00 00 00	r5 = 0x9
    3248:	85 10 00 00 30 f4 ff ff	call -0xbd0
    3249:	79 a1 e0 ff 00 00 00 00	r1 = *(u64 *)(r10 - 0x20)
    3250:	79 a2 e8 ff 00 00 00 00	r2 = *(u64 *)(r10 - 0x18)
    3251:	7b 26 10 00 00 00 00 00	*(u64 *)(r6 + 0x10) = r2
    3252:	7b 16 08 00 00 00 00 00	*(u64 *)(r6 + 0x8) = r1
    3253:	b7 01 00 00 01 00 00 00	r1 = 0x1
    3254:	73 16 00 00 00 00 00 00	*(u8 *)(r6 + 0x0) = w1
    3255:	95 00 00 00 00 00 00 00	exit
    3256:	bf 21 00 00 00 00 00 00	r1 = r2
    3257:	18 02 00 00 a8 2f 07 00 00 00 00 00 00 00 00 00	r2 = 0x72fa8 ll
    3259:	b7 03 00 00 05 00 00 00	r3 = 0x5
    3260:	85 10 00 00 84 c2 00 00	call 0xc284
    3261:	95 00 00 00 00 00 00 00	exit
    3262:	bf 23 00 00 00 00 00 00	r3 = r2
    3263:	79 12 10 00 00 00 00 00	r2 = *(u64 *)(r1 + 0x10)
    3264:	79 11 00 00 00 00 00 00	r1 = *(u64 *)(r1 + 0x0)
    3265:	85 10 00 00 ab c3 00 00	call 0xc3ab
    3266:	95 00 00 00 00 00 00 00	exit
    3267:	bf 27 00 00 00 00 00 00	r7 = r2
    3268:	bf 16 00 00 00 00 00 00	r6 = r1
    3269:	bf 71 00 00 00 00 00 00	r1 = r7
    3270:	67 01 00 00 20 00 00 00	r1 <<= 0x20
    3271:	77 01 00 00 20 00 00 00	r1 >>= 0x20
    3272:	b7 02 00 00 80 00 00 00	r2 = 0x80
    3273:	2d 12 18 00 00 00 00 00	if r2 > r1 goto +0x18 <.text+0x65f0>
    3274:	b7 02 00 00 00 00 00 00	r2 = 0x0
    3275:	63 2a fc ff 00 00 00 00	*(u32 *)(r10 - 0x4) = w2
    3276:	b7 02 00 00 00 08 00 00	r2 = 0x800
    3277:	2d 12 20 00 00 00 00 00	if r2 > r1 goto +0x20 <.text+0x6650>
    3278:	bf 71 00 00 00 00 00 00	r1 = r7
    3279:	67 01 00 00 20 00 00 00	r1 <<= 0x20
    3280:	77 01 00 00 20 00 00 00	r1 >>= 0x20
    3281:	b7 02 00 00 00 00 01 00	r2 = 0x10000
    3282:	2d 12 01 00 00 00 00 00	if r2 > r1 goto +0x1 <.text+0x6580>
    3283:	05 00 23 00 00 00 00 00	goto +0x23 <.text+0x6698>
    3284:	bf 71 00 00 00 00 00 00	r1 = r7
    3285:	57 01 00 00 3f 00 00 00	r1 &= 0x3f
    3286:	47 01 00 00 80 00 00 00	r1 |= 0x80
    3287:	73 1a fe ff 00 00 00 00	*(u8 *)(r10 - 0x2) = w1
    3288:	bf 71 00 00 00 00 00 00	r1 = r7
    3289:	77 01 00 00 0c 00 00 00	r1 >>= 0xc
    3290:	47 01 00 00 e0 00 00 00	r1 |= 0xe0
    3291:	73 1a fc ff 00 00 00 00	*(u8 *)(r10 - 0x4) = w1
    3292:	77 07 00 00 06 00 00 00	r7 >>= 0x6
    3293:	57 07 00 00 3f 00 00 00	r7 &= 0x3f
    3294:	47 07 00 00 80 00 00 00	r7 |= 0x80
    3295:	73 7a fd ff 00 00 00 00	*(u8 *)(r10 - 0x3) = w7
    3296:	b7 07 00 00 03 00 00 00	r7 = 0x3
    3297:	05 00 28 00 00 00 00 00	goto +0x28 <.text+0x6730>
    3298:	79 62 10 00 00 00 00 00	r2 = *(u64 *)(r6 + 0x10)
    3299:	79 61 08 00 00 00 00 00	r1 = *(u64 *)(r6 + 0x8)
    3300:	5d 12 03 00 00 00 00 00	if r2 != r1 goto +0x3 <.text+0x6620>
    3301:	bf 61 00 00 00 00 00 00	r1 = r6
    3302:	85 10 00 00 b0 00 00 00	call 0xb0
    3303:	79 62 10 00 00 00 00 00	r2 = *(u64 *)(r6 + 0x10)
    3304:	79 61 00 00 00 00 00 00	r1 = *(u64 *)(r6 + 0x0)
    3305:	0f 21 00 00 00 00 00 00	r1 += r2
    3306:	73 71 00 00 00 00 00 00	*(u8 *)(r1 + 0x0) = w7
    3307:	07 02 00 00 01 00 00 00	r2 += 0x1
    3308:	7b 26 10 00 00 00 00 00	*(u64 *)(r6 + 0x10) = r2
    3309:	05 00 2d 00 00 00 00 00	goto +0x2d <.text+0x67b8>
    3310:	bf 71 00 00 00 00 00 00	r1 = r7
    3311:	57 01 00 00 3f 00 00 00	r1 &= 0x3f
    3312:	47 01 00 00 80 00 00 00	r1 |= 0x80
    3313:	73 1a fd ff 00 00 00 00	*(u8 *)(r10 - 0x3) = w1
    3314:	77 07 00 00 06 00 00 00	r7 >>= 0x6
    3315:	47 07 00 00 c0 00 00 00	r7 |= 0xc0
    3316:	73 7a fc ff 00 00 00 00	*(u8 *)(r10 - 0x4) = w7
    3317:	b7 07 00 00 02 00 00 00	r7 = 0x2
    3318:	05 00 13 00 00 00 00 00	goto +0x13 <.text+0x6730>
    3319:	bf 71 00 00 00 00 00 00	r1 = r7
    3320:	57 01 00 00 3f 00 00 00	r1 &= 0x3f
    3321:	47 01 00 00 80 00 00 00	r1 |= 0x80
    3322:	73 1a ff ff 00 00 00 00	*(u8 *)(r10 - 0x1) = w1
    3323:	bf 71 00 00 00 00 00 00	r1 = r7
    3324:	77 01 00 00 06 00 00 00	r1 >>= 0x6
    3325:	57 01 00 00 3f 00 00 00	r1 &= 0x3f
    3326:	47 01 00 00 80 00 00 00	r1 |= 0x80
    3327:	73 1a fe ff 00 00 00 00	*(u8 *)(r10 - 0x2) = w1
    3328:	bf 71 00 00 00 00 00 00	r1 = r7
    3329:	77 01 00 00 0c 00 00 00	r1 >>= 0xc
    3330:	57 01 00 00 3f 00 00 00	r1 &= 0x3f
    3331:	47 01 00 00 80 00 00 00	r1 |= 0x80
    3332:	73 1a fd ff 00 00 00 00	*(u8 *)(r10 - 0x3) = w1
    3333:	77 07 00 00 12 00 00 00	r7 >>= 0x12
    3334:	57 07 00 00 07 00 00 00	r7 &= 0x7
    3335:	47 07 00 00 f0 00 00 00	r7 |= 0xf0
    3336:	73 7a fc ff 00 00 00 00	*(u8 *)(r10 - 0x4) = w7
    3337:	b7 07 00 00 04 00 00 00	r7 = 0x4
    3338:	79 68 10 00 00 00 00 00	r8 = *(u64 *)(r6 + 0x10)
    3339:	79 61 08 00 00 00 00 00	r1 = *(u64 *)(r6 + 0x8)
    3340:	1f 81 00 00 00 00 00 00	r1 -= r8
    3341:	3d 71 05 00 00 00 00 00	if r1 >= r7 goto +0x5 <.text+0x6778>
    3342:	bf 61 00 00 00 00 00 00	r1 = r6
    3343:	bf 82 00 00 00 00 00 00	r2 = r8
    3344:	bf 73 00 00 00 00 00 00	r3 = r7
    3345:	85 10 00 00 b4 00 00 00	call 0xb4
    3346:	79 68 10 00 00 00 00 00	r8 = *(u64 *)(r6 + 0x10)
    3347:	79 61 00 00 00 00 00 00	r1 = *(u64 *)(r6 + 0x0)
    3348:	0f 81 00 00 00 00 00 00	r1 += r8
    3349:	bf a2 00 00 00 00 00 00	r2 = r10
    3350:	07 02 00 00 fc ff ff ff	r2 += -0x4
    3351:	bf 73 00 00 00 00 00 00	r3 = r7
    3352:	85 10 00 00 a7 ca 00 00	call 0xcaa7
    3353:	0f 78 00 00 00 00 00 00	r8 += r7
    3354:	7b 86 10 00 00 00 00 00	*(u64 *)(r6 + 0x10) = r8
    3355:	b7 00 00 00 00 00 00 00	r0 = 0x0
    3356:	95 00 00 00 00 00 00 00	exit
    3357:	bf 36 00 00 00 00 00 00	r6 = r3
    3358:	bf 28 00 00 00 00 00 00	r8 = r2
    3359:	bf 17 00 00 00 00 00 00	r7 = r1
    3360:	79 79 10 00 00 00 00 00	r9 = *(u64 *)(r7 + 0x10)
    3361:	79 71 08 00 00 00 00 00	r1 = *(u64 *)(r7 + 0x8)
    3362:	1f 91 00 00 00 00 00 00	r1 -= r9
    3363:	3d 61 05 00 00 00 00 00	if r1 >= r6 goto +0x5 <.text+0x6828>
    3364:	bf 71 00 00 00 00 00 00	r1 = r7
    3365:	bf 92 00 00 00 00 00 00	r2 = r9
    3366:	bf 63 00 00 00 00 00 00	r3 = r6
    3367:	85 10 00 00 9e 00 00 00	call 0x9e
    3368:	79 79 10 00 00 00 00 00	r9 = *(u64 *)(r7 + 0x10)
    3369:	79 71 00 00 00 00 00 00	r1 = *(u64 *)(r7 + 0x0)
    3370:	0f 91 00 00 00 00 00 00	r1 += r9
    3371:	bf 82 00 00 00 00 00 00	r2 = r8
    3372:	bf 63 00 00 00 00 00 00	r3 = r6
    3373:	85 10 00 00 92 ca 00 00	call 0xca92
    3374:	0f 69 00 00 00 00 00 00	r9 += r6
    3375:	7b 97 10 00 00 00 00 00	*(u64 *)(r7 + 0x10) = r9
    3376:	b7 00 00 00 00 00 00 00	r0 = 0x0
    3377:	95 00 00 00 00 00 00 00	exit
    3378:	bf 37 00 00 00 00 00 00	r7 = r3
    3379:	bf 16 00 00 00 00 00 00	r6 = r1
    3380:	15 02 07 00 00 00 00 00	if r2 == 0x0 goto +0x7 <.text+0x68c0>
    3381:	79 41 08 00 00 00 00 00	r1 = *(u64 *)(r4 + 0x8)
    3382:	15 01 26 00 00 00 00 00	if r1 == 0x0 goto +0x26 <.text+0x69c8>
    3383:	79 43 10 00 00 00 00 00	r3 = *(u64 *)(r4 + 0x10)
    3384:	55 03 07 00 00 00 00 00	if r3 != 0x0 goto +0x7 <.text+0x68e0>
    3385:	55 07 42 00 00 00 00 00	if r7 != 0x0 goto +0x42 <.text+0x6ac0>
    3386:	b7 07 00 00 00 00 00 00	r7 = 0x0
    3387:	05 00 3c 00 00 00 00 00	goto +0x3c <.text+0x6aa0>
    3388:	7b 76 10 00 00 00 00 00	*(u64 *)(r6 + 0x10) = r7
    3389:	b7 01 00 00 00 00 00 00	r1 = 0x0
    3390:	7b 16 08 00 00 00 00 00	*(u64 *)(r6 + 0x8) = r1
    3391:	05 00 54 00 00 00 00 00	goto +0x54 <.text+0x6b80>
    3392:	18 01 00 00 00 00 00 00 00 00 00 00 03 00 00 00	r1 = 0x300000000 ll
    3394:	79 11 00 00 00 00 00 00	r1 = *(u64 *)(r1 + 0x0)
    3395:	18 05 00 00 00 80 00 00 00 00 00 00 03 00 00 00	r5 = 0x300008000 ll
    3397:	15 01 01 00 00 00 00 00	if r1 == 0x0 goto +0x1 <.text+0x6918>
    3398:	bf 15 00 00 00 00 00 00	r5 = r1
    3399:	bf 51 00 00 00 00 00 00	r1 = r5
    3400:	1f 71 00 00 00 00 00 00	r1 -= r7
    3401:	b7 08 00 00 00 00 00 00	r8 = 0x0
    3402:	b7 00 00 00 01 00 00 00	r0 = 0x1
    3403:	2d 51 01 00 00 00 00 00	if r1 > r5 goto +0x1 <.text+0x6948>
    3404:	b7 00 00 00 00 00 00 00	r0 = 0x0
    3405:	55 00 01 00 00 00 00 00	if r0 != 0x0 goto +0x1 <.text+0x6958>
    3406:	bf 18 00 00 00 00 00 00	r8 = r1
    3407:	bf 21 00 00 00 00 00 00	r1 = r2
    3408:	87 01 00 00 00 00 00 00	r1 = -r1
    3409:	5f 18 00 00 00 00 00 00	r8 &= r1
    3410:	18 01 00 00 08 00 00 00 00 00 00 00 03 00 00 00	r1 = 0x300000008 ll
    3412:	2d 81 3d 00 00 00 00 00	if r1 > r8 goto +0x3d <.text+0x6b70>
    3413:	79 42 00 00 00 00 00 00	r2 = *(u64 *)(r4 + 0x0)
    3414:	18 01 00 00 00 00 00 00 00 00 00 00 03 00 00 00	r1 = 0x300000000 ll
    3416:	7b 81 00 00 00 00 00 00	*(u64 *)(r1 + 0x0) = r8
    3417:	bf 81 00 00 00 00 00 00	r1 = r8
    3418:	85 10 00 00 65 ca 00 00	call 0xca65
    3419:	bf 82 00 00 00 00 00 00	r2 = r8
    3420:	05 00 1b 00 00 00 00 00	goto +0x1b <.text+0x6aa0>
    3421:	55 07 01 00 00 00 00 00	if r7 != 0x0 goto +0x1 <.text+0x69d8>
    3422:	05 00 db ff 00 00 00 00	goto -0x25 <.text+0x68b0>
    3423:	18 01 00 00 00 00 00 00 00 00 00 00 03 00 00 00	r1 = 0x300000000 ll
    3425:	79 11 00 00 00 00 00 00	r1 = *(u64 *)(r1 + 0x0)
    3426:	18 04 00 00 00 80 00 00 00 00 00 00 03 00 00 00	r4 = 0x300008000 ll
    3428:	15 01 01 00 00 00 00 00	if r1 == 0x0 goto +0x1 <.text+0x6a10>
    3429:	bf 14 00 00 00 00 00 00	r4 = r1
    3430:	bf 43 00 00 00 00 00 00	r3 = r4
    3431:	1f 73 00 00 00 00 00 00	r3 -= r7
    3432:	b7 01 00 00 00 00 00 00	r1 = 0x0
    3433:	b7 05 00 00 01 00 00 00	r5 = 0x1
    3434:	2d 43 01 00 00 00 00 00	if r3 > r4 goto +0x1 <.text+0x6a40>
    3435:	b7 05 00 00 00 00 00 00	r5 = 0x0
    3436:	55 05 01 00 00 00 00 00	if r5 != 0x0 goto +0x1 <.text+0x6a50>
    3437:	bf 31 00 00 00 00 00 00	r1 = r3
    3438:	bf 23 00 00 00 00 00 00	r3 = r2
    3439:	87 03 00 00 00 00 00 00	r3 = -r3
    3440:	5f 31 00 00 00 00 00 00	r1 &= r3
    3441:	18 03 00 00 08 00 00 00 00 00 00 00 03 00 00 00	r3 = 0x300000008 ll
    3443:	2d 13 1e 00 00 00 00 00	if r3 > r1 goto +0x1e <.text+0x6b70>
    3444:	18 02 00 00 00 00 00 00 00 00 00 00 03 00 00 00	r2 = 0x300000000 ll
    3446:	7b 12 00 00 00 00 00 00	*(u64 *)(r2 + 0x0) = r1
    3447:	bf 12 00 00 00 00 00 00	r2 = r1
    3448:	7b 76 10 00 00 00 00 00	*(u64 *)(r6 + 0x10) = r7
    3449:	7b 26 08 00 00 00 00 00	*(u64 *)(r6 + 0x8) = r2
    3450:	b7 01 00 00 00 00 00 00	r1 = 0x0
    3451:	05 00 19 00 00 00 00 00	goto +0x19 <.text+0x6b88>
    3452:	18 01 00 00 00 00 00 00 00 00 00 00 03 00 00 00	r1 = 0x300000000 ll
    3454:	79 11 00 00 00 00 00 00	r1 = *(u64 *)(r1 + 0x0)
    3455:	18 04 00 00 00 80 00 00 00 00 00 00 03 00 00 00	r4 = 0x300008000 ll
    3457:	15 01 01 00 00 00 00 00	if r1 == 0x0 goto +0x1 <.text+0x6af8>
    3458:	bf 14 00 00 00 00 00 00	r4 = r1
    3459:	bf 43 00 00 00 00 00 00	r3 = r4
    3460:	1f 73 00 00 00 00 00 00	r3 -= r7
    3461:	b7 01 00 00 00 00 00 00	r1 = 0x0
    3462:	b7 05 00 00 01 00 00 00	r5 = 0x1
    3463:	2d 43 01 00 00 00 00 00	if r3 > r4 goto +0x1 <.text+0x6b28>
    3464:	b7 05 00 00 00 00 00 00	r5 = 0x0
    3465:	55 05 01 00 00 00 00 00	if r5 != 0x0 goto +0x1 <.text+0x6b38>
    3466:	bf 31 00 00 00 00 00 00	r1 = r3
    3467:	bf 23 00 00 00 00 00 00	r3 = r2
    3468:	87 03 00 00 00 00 00 00	r3 = -r3
    3469:	5f 31 00 00 00 00 00 00	r1 &= r3
    3470:	18 03 00 00 08 00 00 00 00 00 00 00 03 00 00 00	r3 = 0x300000008 ll
    3472:	2d 13 01 00 00 00 00 00	if r3 > r1 goto +0x1 <.text+0x6b70>
    3473:	05 00 e2 ff 00 00 00 00	goto -0x1e <.text+0x6a80>
    3474:	7b 76 10 00 00 00 00 00	*(u64 *)(r6 + 0x10) = r7
    3475:	7b 26 08 00 00 00 00 00	*(u64 *)(r6 + 0x8) = r2
    3476:	b7 01 00 00 01 00 00 00	r1 = 0x1
    3477:	7b 16 00 00 00 00 00 00	*(u64 *)(r6 + 0x0) = r1
    3478:	95 00 00 00 00 00 00 00	exit
    3479:	bf 16 00 00 00 00 00 00	r6 = r1
    3480:	07 02 00 00 01 00 00 00	r2 += 0x1
    3481:	b7 01 00 00 01 00 00 00	r1 = 0x1
    3482:	15 02 01 00 00 00 00 00	if r2 == 0x0 goto +0x1 <.text+0x6bc0>
    3483:	b7 01 00 00 00 00 00 00	r1 = 0x0
    3484:	57 01 00 00 01 00 00 00	r1 &= 0x1
    3485:	55 01 23 00 00 00 00 00	if r1 != 0x0 goto +0x23 <.text+0x6ce8>
    3486:	79 61 08 00 00 00 00 00	r1 = *(u64 *)(r6 + 0x8)
    3487:	bf 17 00 00 00 00 00 00	r7 = r1
    3488:	67 07 00 00 01 00 00 00	r7 <<= 0x1
    3489:	2d 27 01 00 00 00 00 00	if r7 > r2 goto +0x1 <.text+0x6bf8>
    3490:	bf 27 00 00 00 00 00 00	r7 = r2
    3491:	25 07 01 00 08 00 00 00	if r7 > 0x8 goto +0x1 <.text+0x6c08>
    3492:	b7 07 00 00 08 00 00 00	r7 = 0x8
    3493:	bf 72 00 00 00 00 00 00	r2 = r7
    3494:	a7 02 00 00 ff ff ff ff	r2 ^= -0x1
    3495:	77 02 00 00 3f 00 00 00	r2 >>= 0x3f
    3496:	55 01 03 00 00 00 00 00	if r1 != 0x0 goto +0x3 <.text+0x6c40>
    3497:	b7 01 00 00 00 00 00 00	r1 = 0x0
    3498:	7b 1a f0 ff 00 00 00 00	*(u64 *)(r10 - 0x10) = r1
    3499:	05 00 05 00 00 00 00 00	goto +0x5 <.text+0x6c68>
    3500:	79 63 00 00 00 00 00 00	r3 = *(u64 *)(r6 + 0x0)
    3501:	7b 1a f8 ff 00 00 00 00	*(u64 *)(r10 - 0x8) = r1
    3502:	b7 01 00 00 01 00 00 00	r1 = 0x1
    3503:	7b 1a f0 ff 00 00 00 00	*(u64 *)(r10 - 0x10) = r1
    3504:	7b 3a e8 ff 00 00 00 00	*(u64 *)(r10 - 0x18) = r3
    3505:	bf a1 00 00 00 00 00 00	r1 = r10
    3506:	07 01 00 00 d0 ff ff ff	r1 += -0x30
    3507:	bf a4 00 00 00 00 00 00	r4 = r10
    3508:	07 04 00 00 e8 ff ff ff	r4 += -0x18
    3509:	bf 73 00 00 00 00 00 00	r3 = r7
    3510:	85 10 00 00 7b ff ff ff	call -0x85
    3511:	79 a1 d8 ff 00 00 00 00	r1 = *(u64 *)(r10 - 0x28)
    3512:	79 a2 d0 ff 00 00 00 00	r2 = *(u64 *)(r10 - 0x30)
    3513:	55 02 03 00 00 00 00 00	if r2 != 0x0 goto +0x3 <.text+0x6cc8>
    3514:	7b 76 08 00 00 00 00 00	*(u64 *)(r6 + 0x8) = r7
    3515:	7b 16 00 00 00 00 00 00	*(u64 *)(r6 + 0x0) = r1
    3516:	95 00 00 00 00 00 00 00	exit
    3517:	18 02 00 00 01 00 00 00 00 00 00 00 00 00 00 80	r2 = -0x7fffffffffffffff ll
    3519:	1d 21 fc ff 00 00 00 00	if r1 == r2 goto -0x4 <.text+0x6cc0>
    3520:	55 01 02 00 00 00 00 00	if r1 != 0x0 goto +0x2 <.text+0x6cf8>
    3521:	85 10 00 00 a6 b9 00 00	call 0xb9a6
    3522:	85 10 00 00 ff ff ff ff	call -0x1
    3523:	79 a2 e0 ff 00 00 00 00	r2 = *(u64 *)(r10 - 0x20)
    3524:	85 10 00 00 b4 b9 00 00	call 0xb9b4
    3525:	85 10 00 00 ff ff ff ff	call -0x1
    3526:	bf 16 00 00 00 00 00 00	r6 = r1
    3527:	bf 24 00 00 00 00 00 00	r4 = r2
    3528:	0f 34 00 00 00 00 00 00	r4 += r3
    3529:	b7 01 00 00 01 00 00 00	r1 = 0x1
    3530:	2d 42 01 00 00 00 00 00	if r2 > r4 goto +0x1 <.text+0x6d40>
    3531:	b7 01 00 00 00 00 00 00	r1 = 0x0
    3532:	57 01 00 00 01 00 00 00	r1 &= 0x1
    3533:	55 01 23 00 00 00 00 00	if r1 != 0x0 goto +0x23 <.text+0x6e68>
    3534:	79 61 08 00 00 00 00 00	r1 = *(u64 *)(r6 + 0x8)
    3535:	bf 17 00 00 00 00 00 00	r7 = r1
    3536:	67 07 00 00 01 00 00 00	r7 <<= 0x1
    3537:	2d 47 01 00 00 00 00 00	if r7 > r4 goto +0x1 <.text+0x6d78>
    3538:	bf 47 00 00 00 00 00 00	r7 = r4
    3539:	25 07 01 00 08 00 00 00	if r7 > 0x8 goto +0x1 <.text+0x6d88>
    3540:	b7 07 00 00 08 00 00 00	r7 = 0x8
    3541:	bf 72 00 00 00 00 00 00	r2 = r7
    3542:	a7 02 00 00 ff ff ff ff	r2 ^= -0x1
    3543:	77 02 00 00 3f 00 00 00	r2 >>= 0x3f
    3544:	55 01 03 00 00 00 00 00	if r1 != 0x0 goto +0x3 <.text+0x6dc0>
    3545:	b7 01 00 00 00 00 00 00	r1 = 0x0
    3546:	7b 1a f0 ff 00 00 00 00	*(u64 *)(r10 - 0x10) = r1
    3547:	05 00 05 00 00 00 00 00	goto +0x5 <.text+0x6de8>
    3548:	79 63 00 00 00 00 00 00	r3 = *(u64 *)(r6 + 0x0)
    3549:	7b 1a f8 ff 00 00 00 00	*(u64 *)(r10 - 0x8) = r1
    3550:	b7 01 00 00 01 00 00 00	r1 = 0x1
    3551:	7b 1a f0 ff 00 00 00 00	*(u64 *)(r10 - 0x10) = r1
    3552:	7b 3a e8 ff 00 00 00 00	*(u64 *)(r10 - 0x18) = r3
    3553:	bf a1 00 00 00 00 00 00	r1 = r10
    3554:	07 01 00 00 d0 ff ff ff	r1 += -0x30
    3555:	bf a4 00 00 00 00 00 00	r4 = r10
    3556:	07 04 00 00 e8 ff ff ff	r4 += -0x18
    3557:	bf 73 00 00 00 00 00 00	r3 = r7
    3558:	85 10 00 00 4b ff ff ff	call -0xb5
    3559:	79 a1 d8 ff 00 00 00 00	r1 = *(u64 *)(r10 - 0x28)
    3560:	79 a2 d0 ff 00 00 00 00	r2 = *(u64 *)(r10 - 0x30)
    3561:	55 02 03 00 00 00 00 00	if r2 != 0x0 goto +0x3 <.text+0x6e48>
    3562:	7b 76 08 00 00 00 00 00	*(u64 *)(r6 + 0x8) = r7
    3563:	7b 16 00 00 00 00 00 00	*(u64 *)(r6 + 0x0) = r1
    3564:	95 00 00 00 00 00 00 00	exit
    3565:	18 02 00 00 01 00 00 00 00 00 00 00 00 00 00 80	r2 = -0x7fffffffffffffff ll
    3567:	1d 21 fc ff 00 00 00 00	if r1 == r2 goto -0x4 <.text+0x6e40>
    3568:	55 01 02 00 00 00 00 00	if r1 != 0x0 goto +0x2 <.text+0x6e78>
    3569:	85 10 00 00 76 b9 00 00	call 0xb976
    3570:	85 10 00 00 ff ff ff ff	call -0x1
    3571:	79 a2 e0 ff 00 00 00 00	r2 = *(u64 *)(r10 - 0x20)
    3572:	85 10 00 00 84 b9 00 00	call 0xb984
    3573:	85 10 00 00 ff ff ff ff	call -0x1
    3574:	79 13 00 00 00 00 00 00	r3 = *(u64 *)(r1 + 0x0)
    3575:	07 01 00 00 08 00 00 00	r1 += 0x8
    3576:	55 03 0a 00 00 00 00 00	if r3 != 0x0 goto +0xa <.text+0x6ef8>
    3577:	7b 1a f8 ff 00 00 00 00	*(u64 *)(r10 - 0x8) = r1
    3578:	bf a4 00 00 00 00 00 00	r4 = r10
    3579:	07 04 00 00 f8 ff ff ff	r4 += -0x8
    3580:	bf 21 00 00 00 00 00 00	r1 = r2
    3581:	18 02 00 00 36 30 07 00 00 00 00 00 00 00 00 00	r2 = 0x73036 ll
    3583:	b7 03 00 00 0b 00 00 00	r3 = 0xb
    3584:	18 05 00 00 58 68 07 00 00 00 00 00 00 00 00 00	r5 = 0x76858 ll
    3586:	05 00 09 00 00 00 00 00	goto +0x9 <.text+0x6f40>
    3587:	7b 1a f8 ff 00 00 00 00	*(u64 *)(r10 - 0x8) = r1
    3588:	bf a4 00 00 00 00 00 00	r4 = r10
    3589:	07 04 00 00 f8 ff ff ff	r4 += -0x8
    3590:	bf 21 00 00 00 00 00 00	r1 = r2
    3591:	18 02 00 00 41 30 07 00 00 00 00 00 00 00 00 00	r2 = 0x73041 ll
    3593:	b7 03 00 00 0c 00 00 00	r3 = 0xc
    3594:	18 05 00 00 78 68 07 00 00 00 00 00 00 00 00 00	r5 = 0x76878 ll
    3596:	85 10 00 00 18 c2 00 00	call 0xc218
    3597:	95 00 00 00 00 00 00 00	exit
    3598:	79 13 00 00 00 00 00 00	r3 = *(u64 *)(r1 + 0x0)
    3599:	55 03 06 00 02 00 00 00	if r3 != 0x2 goto +0x6 <.text+0x6f90>
    3600:	bf 21 00 00 00 00 00 00	r1 = r2
    3601:	18 02 00 00 b4 30 07 00 00 00 00 00 00 00 00 00	r2 = 0x730b4 ll
    3603:	b7 03 00 00 04 00 00 00	r3 = 0x4
    3604:	85 10 00 00 2c c1 00 00	call 0xc12c
    3605:	05 00 0a 00 00 00 00 00	goto +0xa <.text+0x6fe0>
    3606:	7b 1a f8 ff 00 00 00 00	*(u64 *)(r10 - 0x8) = r1
    3607:	bf a4 00 00 00 00 00 00	r4 = r10
    3608:	07 04 00 00 f8 ff ff ff	r4 += -0x8
    3609:	bf 21 00 00 00 00 00 00	r1 = r2
    3610:	18 02 00 00 a4 30 07 00 00 00 00 00 00 00 00 00	r2 = 0x730a4 ll
    3612:	b7 03 00 00 04 00 00 00	r3 = 0x4
    3613:	18 05 00 00 f8 68 07 00 00 00 00 00 00 00 00 00	r5 = 0x768f8 ll
    3615:	85 10 00 00 05 c2 00 00	call 0xc205
    3616:	95 00 00 00 00 00 00 00	exit
    3617:	7b 1a f8 ff 00 00 00 00	*(u64 *)(r10 - 0x8) = r1
    3618:	bf a4 00 00 00 00 00 00	r4 = r10
    3619:	07 04 00 00 f8 ff ff ff	r4 += -0x8
    3620:	bf 21 00 00 00 00 00 00	r1 = r2
    3621:	18 02 00 00 0a 31 07 00 00 00 00 00 00 00 00 00	r2 = 0x7310a ll
    3623:	b7 03 00 00 0f 00 00 00	r3 = 0xf
    3624:	18 05 00 00 b8 69 07 00 00 00 00 00 00 00 00 00	r5 = 0x769b8 ll
    3626:	85 10 00 00 fa c1 00 00	call 0xc1fa
    3627:	95 00 00 00 00 00 00 00	exit
    3628:	bf 24 00 00 00 00 00 00	r4 = r2
    3629:	18 02 00 00 19 31 07 00 00 00 00 00 00 00 00 00	r2 = 0x73119 ll
    3631:	b7 03 00 00 12 00 00 00	r3 = 0x12
    3632:	71 11 00 00 00 00 00 00	w1 = *(u8 *)(r1 + 0x0)
    3633:	15 01 07 00 00 00 00 00	if r1 == 0x0 goto +0x7 <.text+0x70a8>
    3634:	15 01 03 00 01 00 00 00	if r1 == 0x1 goto +0x3 <.text+0x7090>
    3635:	18 02 00 00 c0 31 07 00 00 00 00 00 00 00 00 00	r2 = 0x731c0 ll
    3637:	05 00 02 00 00 00 00 00	goto +0x2 <.text+0x70a0>
    3638:	18 02 00 00 b0 31 07 00 00 00 00 00 00 00 00 00	r2 = 0x731b0 ll
    3640:	b7 03 00 00 10 00 00 00	r3 = 0x10
    3641:	bf 41 00 00 00 00 00 00	r1 = r4
    3642:	85 10 00 00 06 c1 00 00	call 0xc106
    3643:	95 00 00 00 00 00 00 00	exit
    3644:	bf 24 00 00 00 00 00 00	r4 = r2
    3645:	18 02 00 00 37 32 07 00 00 00 00 00 00 00 00 00	r2 = 0x73237 ll
    3647:	b7 03 00 00 15 00 00 00	r3 = 0x15
    3648:	71 11 00 00 00 00 00 00	w1 = *(u8 *)(r1 + 0x0)
    3649:	15 01 07 00 00 00 00 00	if r1 == 0x0 goto +0x7 <.text+0x7128>
    3650:	15 01 03 00 01 00 00 00	if r1 == 0x1 goto +0x3 <.text+0x7110>
    3651:	18 02 00 00 58 32 07 00 00 00 00 00 00 00 00 00	r2 = 0x73258 ll
    3653:	05 00 02 00 00 00 00 00	goto +0x2 <.text+0x7120>
    3654:	18 02 00 00 4c 32 07 00 00 00 00 00 00 00 00 00	r2 = 0x7324c ll
    3656:	b7 03 00 00 0c 00 00 00	r3 = 0xc
    3657:	bf 41 00 00 00 00 00 00	r1 = r4
    3658:	85 10 00 00 f6 c0 00 00	call 0xc0f6
    3659:	95 00 00 00 00 00 00 00	exit
    3660:	bf 24 00 00 00 00 00 00	r4 = r2
    3661:	71 11 00 00 00 00 00 00	w1 = *(u8 *)(r1 + 0x0)
    3662:	18 02 00 00 64 32 07 00 00 00 00 00 00 00 00 00	r2 = 0x73264 ll
    3664:	15 01 02 00 00 00 00 00	if r1 == 0x0 goto +0x2 <.text+0x7178>
    3665:	18 02 00 00 6d 32 07 00 00 00 00 00 00 00 00 00	r2 = 0x7326d ll
    3667:	b7 03 00 00 09 00 00 00	r3 = 0x9
    3668:	15 01 01 00 00 00 00 00	if r1 == 0x0 goto +0x1 <.text+0x7190>
    3669:	b7 03 00 00 07 00 00 00	r3 = 0x7
    3670:	bf 41 00 00 00 00 00 00	r1 = r4
    3671:	85 10 00 00 e9 c0 00 00	call 0xc0e9
    3672:	95 00 00 00 00 00 00 00	exit
    3673:	bf 16 00 00 00 00 00 00	r6 = r1
    3674:	79 27 08 00 00 00 00 00	r7 = *(u64 *)(r2 + 0x8)
    3675:	b7 01 00 00 20 00 00 00	r1 = 0x20
    3676:	2d 71 af 00 00 00 00 00	if r1 > r7 goto +0xaf <.text+0x7740>
    3677:	07 07 00 00 e0 ff ff ff	r7 += -0x20
    3678:	79 21 00 00 00 00 00 00	r1 = *(u64 *)(r2 + 0x0)
    3679:	71 13 1e 00 00 00 00 00	w3 = *(u8 *)(r1 + 0x1e)
    3680:	7b 3a d0 ff 00 00 00 00	*(u64 *)(r10 - 0x30) = r3
    3681:	71 13 1f 00 00 00 00 00	w3 = *(u8 *)(r1 + 0x1f)
    3682:	7b 3a c8 ff 00 00 00 00	*(u64 *)(r10 - 0x38) = r3
    3683:	71 13 12 00 00 00 00 00	w3 = *(u8 *)(r1 + 0x12)
    3684:	7b 3a c0 ff 00 00 00 00	*(u64 *)(r10 - 0x40) = r3
    3685:	71 13 13 00 00 00 00 00	w3 = *(u8 *)(r1 + 0x13)
    3686:	7b 3a b8 ff 00 00 00 00	*(u64 *)(r10 - 0x48) = r3
    3687:	71 13 15 00 00 00 00 00	w3 = *(u8 *)(r1 + 0x15)
    3688:	7b 3a b0 ff 00 00 00 00	*(u64 *)(r10 - 0x50) = r3
    3689:	71 13 14 00 00 00 00 00	w3 = *(u8 *)(r1 + 0x14)
    3690:	7b 3a a8 ff 00 00 00 00	*(u64 *)(r10 - 0x58) = r3
    3691:	71 13 11 00 00 00 00 00	w3 = *(u8 *)(r1 + 0x11)
    3692:	7b 3a a0 ff 00 00 00 00	*(u64 *)(r10 - 0x60) = r3
    3693:	71 13 10 00 00 00 00 00	w3 = *(u8 *)(r1 + 0x10)
    3694:	7b 3a 98 ff 00 00 00 00	*(u64 *)(r10 - 0x68) = r3
    3695:	71 13 04 00 00 00 00 00	w3 = *(u8 *)(r1 + 0x4)
    3696:	7b 3a 90 ff 00 00 00 00	*(u64 *)(r10 - 0x70) = r3
    3697:	71 13 05 00 00 00 00 00	w3 = *(u8 *)(r1 + 0x5)
    3698:	7b 3a 88 ff 00 00 00 00	*(u64 *)(r10 - 0x78) = r3
    3699:	7b 6a d8 ff 00 00 00 00	*(u64 *)(r10 - 0x28) = r6
    3700:	71 16 0e 00 00 00 00 00	w6 = *(u8 *)(r1 + 0xe)
    3701:	71 13 0f 00 00 00 00 00	w3 = *(u8 *)(r1 + 0xf)
    3702:	7b 3a 80 ff 00 00 00 00	*(u64 *)(r10 - 0x80) = r3
    3703:	71 13 03 00 00 00 00 00	w3 = *(u8 *)(r1 + 0x3)
    3704:	7b 3a 78 ff 00 00 00 00	*(u64 *)(r10 - 0x88) = r3
    3705:	71 13 02 00 00 00 00 00	w3 = *(u8 *)(r1 + 0x2)
    3706:	7b 3a 70 ff 00 00 00 00	*(u64 *)(r10 - 0x90) = r3
    3707:	71 10 16 00 00 00 00 00	w0 = *(u8 *)(r1 + 0x16)
    3708:	71 13 17 00 00 00 00 00	w3 = *(u8 *)(r1 + 0x17)
    3709:	7b 3a 68 ff 00 00 00 00	*(u64 *)(r10 - 0x98) = r3
    3710:	71 13 19 00 00 00 00 00	w3 = *(u8 *)(r1 + 0x19)
    3711:	7b 3a 60 ff 00 00 00 00	*(u64 *)(r10 - 0xa0) = r3
    3712:	71 13 18 00 00 00 00 00	w3 = *(u8 *)(r1 + 0x18)
    3713:	7b 3a 58 ff 00 00 00 00	*(u64 *)(r10 - 0xa8) = r3
    3714:	71 13 1a 00 00 00 00 00	w3 = *(u8 *)(r1 + 0x1a)
    3715:	7b 3a 50 ff 00 00 00 00	*(u64 *)(r10 - 0xb0) = r3
    3716:	71 13 1b 00 00 00 00 00	w3 = *(u8 *)(r1 + 0x1b)
    3717:	7b 3a 48 ff 00 00 00 00	*(u64 *)(r10 - 0xb8) = r3
    3718:	71 13 1d 00 00 00 00 00	w3 = *(u8 *)(r1 + 0x1d)
    3719:	7b 3a 40 ff 00 00 00 00	*(u64 *)(r10 - 0xc0) = r3
    3720:	71 13 1c 00 00 00 00 00	w3 = *(u8 *)(r1 + 0x1c)
    3721:	7b 3a 38 ff 00 00 00 00	*(u64 *)(r10 - 0xc8) = r3
    3722:	71 13 07 00 00 00 00 00	w3 = *(u8 *)(r1 + 0x7)
    3723:	7b 3a 30 ff 00 00 00 00	*(u64 *)(r10 - 0xd0) = r3
    3724:	71 13 06 00 00 00 00 00	w3 = *(u8 *)(r1 + 0x6)
    3725:	7b 3a 28 ff 00 00 00 00	*(u64 *)(r10 - 0xd8) = r3
    3726:	71 13 00 00 00 00 00 00	w3 = *(u8 *)(r1 + 0x0)
    3727:	7b 3a 20 ff 00 00 00 00	*(u64 *)(r10 - 0xe0) = r3
    3728:	71 13 01 00 00 00 00 00	w3 = *(u8 *)(r1 + 0x1)
    3729:	7b 3a 18 ff 00 00 00 00	*(u64 *)(r10 - 0xe8) = r3
    3730:	71 13 0d 00 00 00 00 00	w3 = *(u8 *)(r1 + 0xd)
    3731:	71 14 0c 00 00 00 00 00	w4 = *(u8 *)(r1 + 0xc)
    3732:	7b 4a 10 ff 00 00 00 00	*(u64 *)(r10 - 0xf0) = r4
    3733:	71 18 08 00 00 00 00 00	w8 = *(u8 *)(r1 + 0x8)
    3734:	71 15 09 00 00 00 00 00	w5 = *(u8 *)(r1 + 0x9)
    3735:	71 14 0b 00 00 00 00 00	w4 = *(u8 *)(r1 + 0xb)
    3736:	71 19 0a 00 00 00 00 00	w9 = *(u8 *)(r1 + 0xa)
    3737:	7b 72 08 00 00 00 00 00	*(u64 *)(r2 + 0x8) = r7
    3738:	07 01 00 00 20 00 00 00	r1 += 0x20
    3739:	7b 12 00 00 00 00 00 00	*(u64 *)(r2 + 0x0) = r1
    3740:	67 09 00 00 10 00 00 00	r9 <<= 0x10
    3741:	67 04 00 00 18 00 00 00	r4 <<= 0x18
    3742:	4f 94 00 00 00 00 00 00	r4 |= r9
    3743:	67 05 00 00 08 00 00 00	r5 <<= 0x8
    3744:	4f 58 00 00 00 00 00 00	r8 |= r5
    3745:	57 08 00 00 ff ff 00 00	r8 &= 0xffff
    3746:	4f 48 00 00 00 00 00 00	r8 |= r4
    3747:	79 a1 10 ff 00 00 00 00	r1 = *(u64 *)(r10 - 0xf0)
    3748:	67 01 00 00 20 00 00 00	r1 <<= 0x20
    3749:	67 03 00 00 28 00 00 00	r3 <<= 0x28
    3750:	4f 13 00 00 00 00 00 00	r3 |= r1
    3751:	67 08 00 00 20 00 00 00	r8 <<= 0x20
    3752:	77 08 00 00 20 00 00 00	r8 >>= 0x20
    3753:	4f 38 00 00 00 00 00 00	r8 |= r3
    3754:	79 a1 18 ff 00 00 00 00	r1 = *(u64 *)(r10 - 0xe8)
    3755:	67 01 00 00 08 00 00 00	r1 <<= 0x8
    3756:	79 a4 20 ff 00 00 00 00	r4 = *(u64 *)(r10 - 0xe0)
    3757:	4f 14 00 00 00 00 00 00	r4 |= r1
    3758:	79 a1 28 ff 00 00 00 00	r1 = *(u64 *)(r10 - 0xd8)
    3759:	67 01 00 00 30 00 00 00	r1 <<= 0x30
    3760:	79 a5 30 ff 00 00 00 00	r5 = *(u64 *)(r10 - 0xd0)
    3761:	67 05 00 00 38 00 00 00	r5 <<= 0x38
    3762:	4f 15 00 00 00 00 00 00	r5 |= r1
    3763:	79 a1 38 ff 00 00 00 00	r1 = *(u64 *)(r10 - 0xc8)
    3764:	67 01 00 00 10 00 00 00	r1 <<= 0x10
    3765:	79 a3 40 ff 00 00 00 00	r3 = *(u64 *)(r10 - 0xc0)
    3766:	67 03 00 00 18 00 00 00	r3 <<= 0x18
    3767:	4f 13 00 00 00 00 00 00	r3 |= r1
    3768:	79 a1 48 ff 00 00 00 00	r1 = *(u64 *)(r10 - 0xb8)
    3769:	67 01 00 00 08 00 00 00	r1 <<= 0x8
    3770:	79 a2 50 ff 00 00 00 00	r2 = *(u64 *)(r10 - 0xb0)
    3771:	4f 12 00 00 00 00 00 00	r2 |= r1
    3772:	79 a7 58 ff 00 00 00 00	r7 = *(u64 *)(r10 - 0xa8)
    3773:	67 07 00 00 10 00 00 00	r7 <<= 0x10
    3774:	79 a1 60 ff 00 00 00 00	r1 = *(u64 *)(r10 - 0xa0)
    3775:	67 01 00 00 18 00 00 00	r1 <<= 0x18
    3776:	4f 71 00 00 00 00 00 00	r1 |= r7
    3777:	bf 17 00 00 00 00 00 00	r7 = r1
    3778:	79 a1 68 ff 00 00 00 00	r1 = *(u64 *)(r10 - 0x98)
    3779:	67 01 00 00 08 00 00 00	r1 <<= 0x8
    3780:	4f 10 00 00 00 00 00 00	r0 |= r1
    3781:	79 a9 70 ff 00 00 00 00	r9 = *(u64 *)(r10 - 0x90)
    3782:	67 09 00 00 10 00 00 00	r9 <<= 0x10
    3783:	79 a1 78 ff 00 00 00 00	r1 = *(u64 *)(r10 - 0x88)
    3784:	67 01 00 00 18 00 00 00	r1 <<= 0x18
    3785:	4f 91 00 00 00 00 00 00	r1 |= r9
    3786:	57 00 00 00 ff ff 00 00	r0 &= 0xffff
    3787:	4f 70 00 00 00 00 00 00	r0 |= r7
    3788:	57 02 00 00 ff ff 00 00	r2 &= 0xffff
    3789:	4f 32 00 00 00 00 00 00	r2 |= r3
    3790:	79 a3 80 ff 00 00 00 00	r3 = *(u64 *)(r10 - 0x80)
    3791:	67 03 00 00 08 00 00 00	r3 <<= 0x8
    3792:	4f 36 00 00 00 00 00 00	r6 |= r3
    3793:	67 08 00 00 10 00 00 00	r8 <<= 0x10
    3794:	77 05 00 00 30 00 00 00	r5 >>= 0x30
    3795:	4f 85 00 00 00 00 00 00	r5 |= r8
    3796:	bf 43 00 00 00 00 00 00	r3 = r4
    3797:	57 03 00 00 ff ff 00 00	r3 &= 0xffff
    3798:	4f 13 00 00 00 00 00 00	r3 |= r1
    3799:	bf 37 00 00 00 00 00 00	r7 = r3
    3800:	79 a1 88 ff 00 00 00 00	r1 = *(u64 *)(r10 - 0x78)
    3801:	67 01 00 00 08 00 00 00	r1 <<= 0x8
    3802:	79 a3 90 ff 00 00 00 00	r3 = *(u64 *)(r10 - 0x70)
    3803:	4f 13 00 00 00 00 00 00	r3 |= r1
    3804:	79 a4 98 ff 00 00 00 00	r4 = *(u64 *)(r10 - 0x68)
    3805:	67 04 00 00 10 00 00 00	r4 <<= 0x10
    3806:	79 a1 a0 ff 00 00 00 00	r1 = *(u64 *)(r10 - 0x60)
    3807:	67 01 00 00 18 00 00 00	r1 <<= 0x18
    3808:	4f 41 00 00 00 00 00 00	r1 |= r4
    3809:	6b 3a e4 ff 00 00 00 00	*(u16 *)(r10 - 0x1c) = w3
    3810:	63 7a e0 ff 00 00 00 00	*(u32 *)(r10 - 0x20) = w7
    3811:	7b 5a e6 ff 00 00 00 00	*(u64 *)(r10 - 0x1a) = r5
    3812:	67 02 00 00 20 00 00 00	r2 <<= 0x20
    3813:	67 00 00 00 20 00 00 00	r0 <<= 0x20
    3814:	77 00 00 00 20 00 00 00	r0 >>= 0x20
    3815:	4f 20 00 00 00 00 00 00	r0 |= r2
    3816:	57 06 00 00 ff ff 00 00	r6 &= 0xffff
    3817:	4f 16 00 00 00 00 00 00	r6 |= r1
    3818:	79 a2 a8 ff 00 00 00 00	r2 = *(u64 *)(r10 - 0x58)
    3819:	67 02 00 00 10 00 00 00	r2 <<= 0x10
    3820:	79 a1 b0 ff 00 00 00 00	r1 = *(u64 *)(r10 - 0x50)
    3821:	67 01 00 00 18 00 00 00	r1 <<= 0x18
    3822:	4f 21 00 00 00 00 00 00	r1 |= r2
    3823:	bf 12 00 00 00 00 00 00	r2 = r1
    3824:	79 a3 b8 ff 00 00 00 00	r3 = *(u64 *)(r10 - 0x48)
    3825:	67 03 00 00 08 00 00 00	r3 <<= 0x8
    3826:	79 a1 c0 ff 00 00 00 00	r1 = *(u64 *)(r10 - 0x40)
    3827:	4f 31 00 00 00 00 00 00	r1 |= r3
    3828:	57 01 00 00 ff ff 00 00	r1 &= 0xffff
    3829:	4f 21 00 00 00 00 00 00	r1 |= r2
    3830:	67 01 00 00 20 00 00 00	r1 <<= 0x20
    3831:	67 06 00 00 20 00 00 00	r6 <<= 0x20
    3832:	77 06 00 00 20 00 00 00	r6 >>= 0x20
    3833:	4f 16 00 00 00 00 00 00	r6 |= r1
    3834:	7b 6a ee ff 00 00 00 00	*(u64 *)(r10 - 0x12) = r6
    3835:	79 a6 d8 ff 00 00 00 00	r6 = *(u64 *)(r10 - 0x28)
    3836:	7b 0a f6 ff 00 00 00 00	*(u64 *)(r10 - 0xa) = r0
    3837:	79 a2 c8 ff 00 00 00 00	r2 = *(u64 *)(r10 - 0x38)
    3838:	67 02 00 00 08 00 00 00	r2 <<= 0x8
    3839:	79 a1 d0 ff 00 00 00 00	r1 = *(u64 *)(r10 - 0x30)
    3840:	4f 21 00 00 00 00 00 00	r1 |= r2
    3841:	6b 1a fe ff 00 00 00 00	*(u16 *)(r10 - 0x2) = w1
    3842:	79 a1 e0 ff 00 00 00 00	r1 = *(u64 *)(r10 - 0x20)
    3843:	79 a2 e8 ff 00 00 00 00	r2 = *(u64 *)(r10 - 0x18)
    3844:	79 a3 f0 ff 00 00 00 00	r3 = *(u64 *)(r10 - 0x10)
    3845:	79 a4 f8 ff 00 00 00 00	r4 = *(u64 *)(r10 - 0x8)
    3846:	7b 46 19 00 00 00 00 00	*(u64 *)(r6 + 0x19) = r4
    3847:	7b 36 11 00 00 00 00 00	*(u64 *)(r6 + 0x11) = r3
    3848:	7b 26 09 00 00 00 00 00	*(u64 *)(r6 + 0x9) = r2
    3849:	7b 16 01 00 00 00 00 00	*(u64 *)(r6 + 0x1) = r1
    3850:	b7 01 00 00 00 00 00 00	r1 = 0x0
    3851:	05 00 05 00 00 00 00 00	goto +0x5 <.text+0x7768>
    3852:	18 01 00 00 58 67 07 00 00 00 00 00 00 00 00 00	r1 = 0x76758 ll
    3854:	85 10 00 00 11 b5 00 00	call 0xb511
    3855:	7b 06 08 00 00 00 00 00	*(u64 *)(r6 + 0x8) = r0
    3856:	b7 01 00 00 01 00 00 00	r1 = 0x1
    3857:	73 16 00 00 00 00 00 00	*(u8 *)(r6 + 0x0) = w1
    3858:	95 00 00 00 00 00 00 00	exit
    3859:	79 23 08 00 00 00 00 00	r3 = *(u64 *)(r2 + 0x8)
    3860:	79 35 00 00 00 00 00 00	r5 = *(u64 *)(r3 + 0x0)
    3861:	07 05 00 00 01 00 00 00	r5 += 0x1
    3862:	b7 00 00 00 01 00 00 00	r0 = 0x1
    3863:	15 05 01 00 00 00 00 00	if r5 == 0x0 goto +0x1 <.text+0x77a8>
    3864:	b7 00 00 00 00 00 00 00	r0 = 0x0
    3865:	79 24 00 00 00 00 00 00	r4 = *(u64 *)(r2 + 0x0)
    3866:	7b 53 00 00 00 00 00 00	*(u64 *)(r3 + 0x0) = r5
    3867:	55 00 02 00 01 00 00 00	if r0 != 0x1 goto +0x2 <.text+0x77d0>
    3868:	85 10 00 00 ff ff ff ff	call -0x1
    3869:	85 10 00 00 ff ff ff ff	call -0x1
    3870:	79 25 10 00 00 00 00 00	r5 = *(u64 *)(r2 + 0x10)
    3871:	79 50 00 00 00 00 00 00	r0 = *(u64 *)(r5 + 0x0)
    3872:	07 00 00 00 01 00 00 00	r0 += 0x1
    3873:	b7 06 00 00 01 00 00 00	r6 = 0x1
    3874:	15 00 01 00 00 00 00 00	if r0 == 0x0 goto +0x1 <.text+0x7800>
    3875:	b7 06 00 00 00 00 00 00	r6 = 0x0
    3876:	7b 05 00 00 00 00 00 00	*(u64 *)(r5 + 0x0) = r0
    3877:	55 06 01 00 01 00 00 00	if r6 != 0x1 goto +0x1 <.text+0x7818>
    3878:	05 00 f5 ff 00 00 00 00	goto -0xb <.text+0x77c0>
    3879:	79 20 18 00 00 00 00 00	r0 = *(u64 *)(r2 + 0x18)
    3880:	79 26 20 00 00 00 00 00	r6 = *(u64 *)(r2 + 0x20)
    3881:	71 27 28 00 00 00 00 00	w7 = *(u8 *)(r2 + 0x28)
    3882:	71 28 29 00 00 00 00 00	w8 = *(u8 *)(r2 + 0x29)
    3883:	71 22 2a 00 00 00 00 00	w2 = *(u8 *)(r2 + 0x2a)
    3884:	73 21 2a 00 00 00 00 00	*(u8 *)(r1 + 0x2a) = w2
    3885:	73 81 29 00 00 00 00 00	*(u8 *)(r1 + 0x29) = w8
    3886:	73 71 28 00 00 00 00 00	*(u8 *)(r1 + 0x28) = w7
    3887:	7b 61 20 00 00 00 00 00	*(u64 *)(r1 + 0x20) = r6
    3888:	7b 01 18 00 00 00 00 00	*(u64 *)(r1 + 0x18) = r0
    3889:	7b 51 10 00 00 00 00 00	*(u64 *)(r1 + 0x10) = r5
    3890:	7b 31 08 00 00 00 00 00	*(u64 *)(r1 + 0x8) = r3
    3891:	7b 41 00 00 00 00 00 00	*(u64 *)(r1 + 0x0) = r4
    3892:	95 00 00 00 00 00 00 00	exit
    3893:	61 13 00 00 00 00 00 00	w3 = *(u32 *)(r1 + 0x0)
    3894:	65 03 09 00 0b 00 00 00	if r3 s> 0xb goto +0x9 <.text+0x78e0>
    3895:	65 03 17 00 05 00 00 00	if r3 s> 0x5 goto +0x17 <.text+0x7958>
    3896:	65 03 26 00 02 00 00 00	if r3 s> 0x2 goto +0x26 <.text+0x79d8>
    3897:	15 03 3d 00 00 00 00 00	if r3 == 0x0 goto +0x3d <.text+0x7a98>
    3898:	15 03 48 00 01 00 00 00	if r3 == 0x1 goto +0x48 <.text+0x7af8>
    3899:	bf 21 00 00 00 00 00 00	r1 = r2
    3900:	18 02 00 00 ac 32 07 00 00 00 00 00 00 00 00 00	r2 = 0x732ac ll
    3902:	b7 03 00 00 16 00 00 00	r3 = 0x16
    3903:	05 00 89 00 00 00 00 00	goto +0x89 <.text+0x7d28>
    3904:	65 03 16 00 11 00 00 00	if r3 s> 0x11 goto +0x16 <.text+0x7998>
    3905:	65 03 23 00 0e 00 00 00	if r3 s> 0xe goto +0x23 <.text+0x7a08>
    3906:	15 03 45 00 0c 00 00 00	if r3 == 0xc goto +0x45 <.text+0x7b20>
    3907:	15 03 49 00 0d 00 00 00	if r3 == 0xd goto +0x49 <.text+0x7b48>
    3908:	07 01 00 00 08 00 00 00	r1 += 0x8
    3909:	7b 1a f8 ff 00 00 00 00	*(u64 *)(r10 - 0x8) = r1
    3910:	bf a4 00 00 00 00 00 00	r4 = r10
    3911:	07 04 00 00 f8 ff ff ff	r4 += -0x8
    3912:	bf 21 00 00 00 00 00 00	r1 = r2
    3913:	18 02 00 00 64 33 07 00 00 00 00 00 00 00 00 00	r2 = 0x73364 ll
    3915:	b7 03 00 00 0c 00 00 00	r3 = 0xc
    3916:	18 05 00 00 d8 67 07 00 00 00 00 00 00 00 00 00	r5 = 0x767d8 ll
    3918:	05 00 32 00 00 00 00 00	goto +0x32 <.text+0x7ae8>
    3919:	65 03 1b 00 08 00 00 00	if r3 s> 0x8 goto +0x1b <.text+0x7a38>
    3920:	15 03 41 00 06 00 00 00	if r3 == 0x6 goto +0x41 <.text+0x7b70>
    3921:	15 03 44 00 07 00 00 00	if r3 == 0x7 goto +0x44 <.text+0x7b90>
    3922:	bf 21 00 00 00 00 00 00	r1 = r2
    3923:	18 02 00 00 10 33 07 00 00 00 00 00 00 00 00 00	r2 = 0x73310 ll
    3925:	b7 03 00 00 19 00 00 00	r3 = 0x19
    3926:	05 00 72 00 00 00 00 00	goto +0x72 <.text+0x7d28>
    3927:	65 03 19 00 14 00 00 00	if r3 s> 0x14 goto +0x19 <.text+0x7a68>
    3928:	15 03 42 00 12 00 00 00	if r3 == 0x12 goto +0x42 <.text+0x7bb8>
    3929:	15 03 46 00 13 00 00 00	if r3 == 0x13 goto +0x46 <.text+0x7be0>
    3930:	bf 21 00 00 00 00 00 00	r1 = r2
    3931:	18 02 00 00 c5 33 07 00 00 00 00 00 00 00 00 00	r2 = 0x733c5 ll
    3933:	b7 03 00 00 21 00 00 00	r3 = 0x21
    3934:	05 00 6a 00 00 00 00 00	goto +0x6a <.text+0x7d28>
    3935:	15 03 45 00 03 00 00 00	if r3 == 0x3 goto +0x45 <.text+0x7c08>
    3936:	15 03 49 00 04 00 00 00	if r3 == 0x4 goto +0x49 <.text+0x7c30>
    3937:	bf 21 00 00 00 00 00 00	r1 = r2
    3938:	18 02 00 00 d5 32 07 00 00 00 00 00 00 00 00 00	r2 = 0x732d5 ll
    3940:	05 00 50 00 00 00 00 00	goto +0x50 <.text+0x7c88>
    3941:	15 03 48 00 0f 00 00 00	if r3 == 0xf goto +0x48 <.text+0x7c50>
    3942:	15 03 4b 00 10 00 00 00	if r3 == 0x10 goto +0x4b <.text+0x7c70>
    3943:	bf 21 00 00 00 00 00 00	r1 = r2
    3944:	18 02 00 00 58 32 07 00 00 00 00 00 00 00 00 00	r2 = 0x73258 ll
    3946:	05 00 25 00 00 00 00 00	goto +0x25 <.text+0x7b60>
    3947:	15 03 4b 00 09 00 00 00	if r3 == 0x9 goto +0x4b <.text+0x7c98>
    3948:	15 03 4e 00 0a 00 00 00	if r3 == 0xa goto +0x4e <.text+0x7cb8>
    3949:	bf 21 00 00 00 00 00 00	r1 = r2
    3950:	18 02 00 00 51 33 07 00 00 00 00 00 00 00 00 00	r2 = 0x73351 ll
    3952:	05 00 57 00 00 00 00 00	goto +0x57 <.text+0x7d20>
    3953:	15 03 4e 00 15 00 00 00	if r3 == 0x15 goto +0x4e <.text+0x7ce0>
    3954:	15 03 52 00 16 00 00 00	if r3 == 0x16 goto +0x52 <.text+0x7d08>
    3955:	bf 21 00 00 00 00 00 00	r1 = r2
    3956:	18 02 00 00 1f 34 07 00 00 00 00 00 00 00 00 00	r2 = 0x7341f ll
    3958:	05 00 31 00 00 00 00 00	goto +0x31 <.text+0x7c20>
    3959:	07 01 00 00 04 00 00 00	r1 += 0x4
    3960:	7b 1a f8 ff 00 00 00 00	*(u64 *)(r10 - 0x8) = r1
    3961:	bf a4 00 00 00 00 00 00	r4 = r10
    3962:	07 04 00 00 f8 ff ff ff	r4 += -0x8
    3963:	bf 21 00 00 00 00 00 00	r1 = r2
    3964:	18 02 00 00 97 32 07 00 00 00 00 00 00 00 00 00	r2 = 0x73297 ll
    3966:	b7 03 00 00 06 00 00 00	r3 = 0x6
    3967:	18 05 00 00 b8 68 07 00 00 00 00 00 00 00 00 00	r5 = 0x768b8 ll
    3969:	85 10 00 00 a3 c0 00 00	call 0xc0a3
    3970:	05 00 47 00 00 00 00 00	goto +0x47 <.text+0x7d30>
    3971:	bf 21 00 00 00 00 00 00	r1 = r2
    3972:	18 02 00 00 9d 32 07 00 00 00 00 00 00 00 00 00	r2 = 0x7329d ll
    3974:	b7 03 00 00 0f 00 00 00	r3 = 0xf
    3975:	05 00 41 00 00 00 00 00	goto +0x41 <.text+0x7d28>
    3976:	bf 21 00 00 00 00 00 00	r1 = r2
    3977:	18 02 00 00 37 32 07 00 00 00 00 00 00 00 00 00	r2 = 0x73237 ll
    3979:	b7 03 00 00 15 00 00 00	r3 = 0x15
    3980:	05 00 3c 00 00 00 00 00	goto +0x3c <.text+0x7d28>
    3981:	bf 21 00 00 00 00 00 00	r1 = r2
    3982:	18 02 00 00 4c 32 07 00 00 00 00 00 00 00 00 00	r2 = 0x7324c ll
    3984:	b7 03 00 00 0c 00 00 00	r3 = 0xc
    3985:	05 00 37 00 00 00 00 00	goto +0x37 <.text+0x7d28>
    3986:	bf 21 00 00 00 00 00 00	r1 = r2
    3987:	18 02 00 00 e6 32 07 00 00 00 00 00 00 00 00 00	r2 = 0x732e6 ll
    3989:	05 00 12 00 00 00 00 00	goto +0x12 <.text+0x7c20>
    3990:	bf 21 00 00 00 00 00 00	r1 = r2
    3991:	18 02 00 00 f8 32 07 00 00 00 00 00 00 00 00 00	r2 = 0x732f8 ll
    3993:	b7 03 00 00 18 00 00 00	r3 = 0x18
    3994:	05 00 2e 00 00 00 00 00	goto +0x2e <.text+0x7d28>
    3995:	bf 21 00 00 00 00 00 00	r1 = r2
    3996:	18 02 00 00 95 33 07 00 00 00 00 00 00 00 00 00	r2 = 0x73395 ll
    3998:	b7 03 00 00 22 00 00 00	r3 = 0x22
    3999:	05 00 29 00 00 00 00 00	goto +0x29 <.text+0x7d28>
    4000:	bf 21 00 00 00 00 00 00	r1 = r2
    4001:	18 02 00 00 b7 33 07 00 00 00 00 00 00 00 00 00	r2 = 0x733b7 ll
    4003:	b7 03 00 00 0e 00 00 00	r3 = 0xe
    4004:	05 00 24 00 00 00 00 00	goto +0x24 <.text+0x7d28>
    4005:	bf 21 00 00 00 00 00 00	r1 = r2
    4006:	18 02 00 00 19 31 07 00 00 00 00 00 00 00 00 00	r2 = 0x73119 ll
    4008:	b7 03 00 00 12 00 00 00	r3 = 0x12
    4009:	05 00 1f 00 00 00 00 00	goto +0x1f <.text+0x7d28>
    4010:	bf 21 00 00 00 00 00 00	r1 = r2
    4011:	18 02 00 00 c2 32 07 00 00 00 00 00 00 00 00 00	r2 = 0x732c2 ll
    4013:	05 00 1a 00 00 00 00 00	goto +0x1a <.text+0x7d20>
    4014:	bf 21 00 00 00 00 00 00	r1 = r2
    4015:	18 02 00 00 70 33 07 00 00 00 00 00 00 00 00 00	r2 = 0x73370 ll
    4017:	05 00 0c 00 00 00 00 00	goto +0xc <.text+0x7cd0>
    4018:	bf 21 00 00 00 00 00 00	r1 = r2
    4019:	18 02 00 00 84 33 07 00 00 00 00 00 00 00 00 00	r2 = 0x73384 ll
    4021:	b7 03 00 00 11 00 00 00	r3 = 0x11
    4022:	05 00 12 00 00 00 00 00	goto +0x12 <.text+0x7d28>
    4023:	bf 21 00 00 00 00 00 00	r1 = r2
    4024:	18 02 00 00 29 33 07 00 00 00 00 00 00 00 00 00	r2 = 0x73329 ll
    4026:	05 00 03 00 00 00 00 00	goto +0x3 <.text+0x7cd0>
    4027:	bf 21 00 00 00 00 00 00	r1 = r2
    4028:	18 02 00 00 3d 33 07 00 00 00 00 00 00 00 00 00	r2 = 0x7333d ll
    4030:	b7 03 00 00 14 00 00 00	r3 = 0x14
    4031:	05 00 09 00 00 00 00 00	goto +0x9 <.text+0x7d28>
    4032:	bf 21 00 00 00 00 00 00	r1 = r2
    4033:	18 02 00 00 e6 33 07 00 00 00 00 00 00 00 00 00	r2 = 0x733e6 ll
    4035:	b7 03 00 00 26 00 00 00	r3 = 0x26
    4036:	05 00 04 00 00 00 00 00	goto +0x4 <.text+0x7d28>
    4037:	bf 21 00 00 00 00 00 00	r1 = r2
    4038:	18 02 00 00 0c 34 07 00 00 00 00 00 00 00 00 00	r2 = 0x7340c ll
    4040:	b7 03 00 00 13 00 00 00	r3 = 0x13
    4041:	85 10 00 00 77 bf 00 00	call 0xbf77
    4042:	95 00 00 00 00 00 00 00	exit
    4043:	bf 16 00 00 00 00 00 00	r6 = r1
    4044:	79 21 08 00 00 00 00 00	r1 = *(u64 *)(r2 + 0x8)
    4045:	55 01 09 00 00 00 00 00	if r1 != 0x0 goto +0x9 <.text+0x7d98>
    4046:	bf a1 00 00 00 00 00 00	r1 = r10
    4047:	07 01 00 00 f0 ff ff ff	r1 += -0x10
    4048:	b7 02 00 00 bd 0b 00 00	r2 = 0xbbd
    4049:	85 10 00 00 a5 a4 00 00	call 0xa4a5
    4050:	79 a1 f0 ff 00 00 00 00	r1 = *(u64 *)(r10 - 0x10)
    4051:	79 a2 f8 ff 00 00 00 00	r2 = *(u64 *)(r10 - 0x8)
    4052:	7b 26 08 00 00 00 00 00	*(u64 *)(r6 + 0x8) = r2
    4053:	7b 16 00 00 00 00 00 00	*(u64 *)(r6 + 0x0) = r1
    4054:	05 00 09 00 00 00 00 00	goto +0x9 <.text+0x7de0>
    4055:	07 01 00 00 ff ff ff ff	r1 += -0x1
    4056:	7b 12 08 00 00 00 00 00	*(u64 *)(r2 + 0x8) = r1
    4057:	79 23 00 00 00 00 00 00	r3 = *(u64 *)(r2 + 0x0)
    4058:	bf 31 00 00 00 00 00 00	r1 = r3
    4059:	07 01 00 00 30 00 00 00	r1 += 0x30
    4060:	7b 12 00 00 00 00 00 00	*(u64 *)(r2 + 0x0) = r1
    4061:	bf 61 00 00 00 00 00 00	r1 = r6
    4062:	bf 32 00 00 00 00 00 00	r2 = r3
    4063:	85 10 00 00 57 9d 00 00	call 0x9d57
    4064:	95 00 00 00 00 00 00 00	exit
    4065:	bf 16 00 00 00 00 00 00	r6 = r1
    4066:	79 21 08 00 00 00 00 00	r1 = *(u64 *)(r2 + 0x8)
    4067:	55 01 0b 00 00 00 00 00	if r1 != 0x0 goto +0xb <.text+0x7e58>
    4068:	bf a1 00 00 00 00 00 00	r1 = r10
    4069:	07 01 00 00 f0 ff ff ff	r1 += -0x10
    4070:	b7 02 00 00 bd 0b 00 00	r2 = 0xbbd
    4071:	85 10 00 00 8f a4 00 00	call 0xa48f
    4072:	79 a1 f0 ff 00 00 00 00	r1 = *(u64 *)(r10 - 0x10)
    4073:	79 a2 f8 ff 00 00 00 00	r2 = *(u64 *)(r10 - 0x8)
    4074:	7b 26 10 00 00 00 00 00	*(u64 *)(r6 + 0x10) = r2
    4075:	7b 16 08 00 00 00 00 00	*(u64 *)(r6 + 0x8) = r1
    4076:	b7 01 00 00 02 00 00 00	r1 = 0x2
    4077:	63 16 00 00 00 00 00 00	*(u32 *)(r6 + 0x0) = w1
    4078:	05 00 09 00 00 00 00 00	goto +0x9 <.text+0x7ea0>
    4079:	07 01 00 00 ff ff ff ff	r1 += -0x1
    4080:	7b 12 08 00 00 00 00 00	*(u64 *)(r2 + 0x8) = r1
    4081:	79 23 00 00 00 00 00 00	r3 = *(u64 *)(r2 + 0x0)
    4082:	bf 31 00 00 00 00 00 00	r1 = r3
    4083:	07 01 00 00 30 00 00 00	r1 += 0x30
    4084:	7b 12 00 00 00 00 00 00	*(u64 *)(r2 + 0x0) = r1
    4085:	bf 61 00 00 00 00 00 00	r1 = r6
    4086:	bf 32 00 00 00 00 00 00	r2 = r3
    4087:	85 10 00 00 56 f8 ff ff	call -0x7aa
    4088:	95 00 00 00 00 00 00 00	exit
    4089:	bf 16 00 00 00 00 00 00	r6 = r1
    4090:	79 21 08 00 00 00 00 00	r1 = *(u64 *)(r2 + 0x8)
    4091:	55 01 0b 00 00 00 00 00	if r1 != 0x0 goto +0xb <.text+0x7f18>
    4092:	bf a1 00 00 00 00 00 00	r1 = r10
    4093:	07 01 00 00 f0 ff ff ff	r1 += -0x10
    4094:	b7 02 00 00 bd 0b 00 00	r2 = 0xbbd
    4095:	85 10 00 00 77 a4 00 00	call 0xa477
    4096:	79 a1 f0 ff 00 00 00 00	r1 = *(u64 *)(r10 - 0x10)
    4097:	79 a2 f8 ff 00 00 00 00	r2 = *(u64 *)(r10 - 0x8)
    4098:	b7 03 00 00 02 00 00 00	r3 = 0x2
    4099:	63 36 90 00 00 00 00 00	*(u32 *)(r6 + 0x90) = w3
    4100:	7b 26 08 00 00 00 00 00	*(u64 *)(r6 + 0x8) = r2
    4101:	7b 16 00 00 00 00 00 00	*(u64 *)(r6 + 0x0) = r1
    4102:	05 00 09 00 00 00 00 00	goto +0x9 <.text+0x7f60>
    4103:	07 01 00 00 ff ff ff ff	r1 += -0x1
    4104:	7b 12 08 00 00 00 00 00	*(u64 *)(r2 + 0x8) = r1
    4105:	79 23 00 00 00 00 00 00	r3 = *(u64 *)(r2 + 0x0)
    4106:	bf 31 00 00 00 00 00 00	r1 = r3
    4107:	07 01 00 00 30 00 00 00	r1 += 0x30
    4108:	7b 12 00 00 00 00 00 00	*(u64 *)(r2 + 0x0) = r1
    4109:	bf 61 00 00 00 00 00 00	r1 = r6
    4110:	bf 32 00 00 00 00 00 00	r2 = r3
    4111:	85 10 00 00 11 f7 ff ff	call -0x8ef
    4112:	95 00 00 00 00 00 00 00	exit
    4113:	bf 16 00 00 00 00 00 00	r6 = r1
    4114:	79 21 08 00 00 00 00 00	r1 = *(u64 *)(r2 + 0x8)
    4115:	55 01 0b 00 00 00 00 00	if r1 != 0x0 goto +0xb <.text+0x7fd8>
    4116:	bf a1 00 00 00 00 00 00	r1 = r10
    4117:	07 01 00 00 f0 ff ff ff	r1 += -0x10
    4118:	b7 02 00 00 bd 0b 00 00	r2 = 0xbbd
    4119:	85 10 00 00 5f a4 00 00	call 0xa45f
    4120:	79 a1 f0 ff 00 00 00 00	r1 = *(u64 *)(r10 - 0x10)
    4121:	79 a2 f8 ff 00 00 00 00	r2 = *(u64 *)(r10 - 0x8)
    4122:	b7 03 00 00 02 00 00 00	r3 = 0x2
    4123:	73 36 95 03 00 00 00 00	*(u8 *)(r6 + 0x395) = w3
    4124:	7b 26 08 00 00 00 00 00	*(u64 *)(r6 + 0x8) = r2
    4125:	7b 16 00 00 00 00 00 00	*(u64 *)(r6 + 0x0) = r1
    4126:	05 00 09 00 00 00 00 00	goto +0x9 <.text+0x8020>
    4127:	07 01 00 00 ff ff ff ff	r1 += -0x1
    4128:	7b 12 08 00 00 00 00 00	*(u64 *)(r2 + 0x8) = r1
    4129:	79 23 00 00 00 00 00 00	r3 = *(u64 *)(r2 + 0x0)
    4130:	bf 31 00 00 00 00 00 00	r1 = r3
    4131:	07 01 00 00 30 00 00 00	r1 += 0x30
    4132:	7b 12 00 00 00 00 00 00	*(u64 *)(r2 + 0x0) = r1
    4133:	bf 61 00 00 00 00 00 00	r1 = r6
    4134:	bf 32 00 00 00 00 00 00	r2 = r3
    4135:	85 10 00 00 63 f6 ff ff	call -0x99d
    4136:	95 00 00 00 00 00 00 00	exit
    4137:	bf 16 00 00 00 00 00 00	r6 = r1
    4138:	79 21 08 00 00 00 00 00	r1 = *(u64 *)(r2 + 0x8)
    4139:	55 01 0b 00 00 00 00 00	if r1 != 0x0 goto +0xb <.text+0x8098>
    4140:	bf a1 00 00 00 00 00 00	r1 = r10
    4141:	07 01 00 00 f0 ff ff ff	r1 += -0x10
    4142:	b7 02 00 00 bd 0b 00 00	r2 = 0xbbd
    4143:	85 10 00 00 47 a4 00 00	call 0xa447
    4144:	79 a1 f0 ff 00 00 00 00	r1 = *(u64 *)(r10 - 0x10)
    4145:	79 a2 f8 ff 00 00 00 00	r2 = *(u64 *)(r10 - 0x8)
    4146:	7b 26 10 00 00 00 00 00	*(u64 *)(r6 + 0x10) = r2
    4147:	7b 16 08 00 00 00 00 00	*(u64 *)(r6 + 0x8) = r1
    4148:	b7 01 00 00 00 00 00 00	r1 = 0x0
    4149:	7b 16 00 00 00 00 00 00	*(u64 *)(r6 + 0x0) = r1
    4150:	05 00 09 00 00 00 00 00	goto +0x9 <.text+0x80e0>
    4151:	07 01 00 00 ff ff ff ff	r1 += -0x1
    4152:	7b 12 08 00 00 00 00 00	*(u64 *)(r2 + 0x8) = r1
    4153:	79 23 00 00 00 00 00 00	r3 = *(u64 *)(r2 + 0x0)
    4154:	bf 31 00 00 00 00 00 00	r1 = r3
    4155:	07 01 00 00 30 00 00 00	r1 += 0x30
    4156:	7b 12 00 00 00 00 00 00	*(u64 *)(r2 + 0x0) = r1
    4157:	bf 61 00 00 00 00 00 00	r1 = r6
    4158:	bf 32 00 00 00 00 00 00	r2 = r3
    4159:	85 10 00 00 7b f7 ff ff	call -0x885
    4160:	95 00 00 00 00 00 00 00	exit
    4161:	bf 16 00 00 00 00 00 00	r6 = r1
    4162:	79 21 08 00 00 00 00 00	r1 = *(u64 *)(r2 + 0x8)
    4163:	55 01 09 00 00 00 00 00	if r1 != 0x0 goto +0x9 <.text+0x8148>
    4164:	bf a1 00 00 00 00 00 00	r1 = r10
    4165:	07 01 00 00 80 ff ff ff	r1 += -0x80
    4166:	b7 02 00 00 bd 0b 00 00	r2 = 0xbbd
    4167:	85 10 00 00 2f a4 00 00	call 0xa42f
    4168:	79 a1 80 ff 00 00 00 00	r1 = *(u64 *)(r10 - 0x80)
    4169:	79 a2 88 ff 00 00 00 00	r2 = *(u64 *)(r10 - 0x78)
    4170:	7b 26 08 00 00 00 00 00	*(u64 *)(r6 + 0x8) = r2
    4171:	7b 16 00 00 00 00 00 00	*(u64 *)(r6 + 0x0) = r1
    4172:	95 00 00 00 00 00 00 00	exit
    4173:	07 01 00 00 ff ff ff ff	r1 += -0x1
    4174:	7b 12 08 00 00 00 00 00	*(u64 *)(r2 + 0x8) = r1
    4175:	79 21 00 00 00 00 00 00	r1 = *(u64 *)(r2 + 0x0)
    4176:	bf 13 00 00 00 00 00 00	r3 = r1
    4177:	07 03 00 00 30 00 00 00	r3 += 0x30
    4178:	7b 32 00 00 00 00 00 00	*(u64 *)(r2 + 0x0) = r3
    4179:	79 17 00 00 00 00 00 00	r7 = *(u64 *)(r1 + 0x0)
    4180:	79 72 00 00 00 00 00 00	r2 = *(u64 *)(r7 + 0x0)
    4181:	18 03 00 00 06 dd f6 e1 00 00 00 00 d7 65 a1 93	r3 = -0x6c5e9a281e0922fa ll
    4183:	1d 32 02 00 00 00 00 00	if r2 == r3 goto +0x2 <.text+0x81b0>
    4184:	b7 02 00 00 01 00 00 00	r2 = 0x1
    4185:	05 00 0d 00 00 00 00 00	goto +0xd <.text+0x8218>
    4186:	79 72 08 00 00 00 00 00	r2 = *(u64 *)(r7 + 0x8)
    4187:	18 03 00 00 d9 cb e1 46 00 00 00 00 ce eb 79 ac	r3 = -0x53861431b91e3427 ll
    4189:	5d 32 fa ff 00 00 00 00	if r2 != r3 goto -0x6 <.text+0x81a0>
    4190:	79 72 10 00 00 00 00 00	r2 = *(u64 *)(r7 + 0x10)
    4191:	18 03 00 00 1c b4 85 ed 00 00 00 00 5f 5b 37 91	r3 = -0x6ec8a4a0127a4be4 ll
    4193:	5d 32 f6 ff 00 00 00 00	if r2 != r3 goto -0xa <.text+0x81a0>
    4194:	b7 02 00 00 00 00 00 00	r2 = 0x0
    4195:	79 73 18 00 00 00 00 00	r3 = *(u64 *)(r7 + 0x18)
    4196:	18 04 00 00 3a 8c f5 85 00 00 00 00 7e ff 00 a9	r4 = -0x56ff00817a0a73c6 ll
    4198:	5d 43 f1 ff 00 00 00 00	if r3 != r4 goto -0xf <.text+0x81a0>
    4199:	55 02 06 00 00 00 00 00	if r2 != 0x0 goto +0x6 <.text+0x8250>
    4200:	71 12 2a 00 00 00 00 00	w2 = *(u8 *)(r1 + 0x2a)
    4201:	15 02 26 00 00 00 00 00	if r2 == 0x0 goto +0x26 <.text+0x8360>
    4202:	b7 02 00 00 02 00 00 00	r2 = 0x2
    4203:	7b 26 00 00 00 00 00 00	*(u64 *)(r6 + 0x0) = r2
    4204:	7b 16 08 00 00 00 00 00	*(u64 *)(r6 + 0x8) = r1
    4205:	05 00 de ff 00 00 00 00	goto -0x22 <.text+0x8140>
    4206:	bf a1 00 00 00 00 00 00	r1 = r10
    4207:	07 01 00 00 b0 ff ff ff	r1 += -0x50
    4208:	b7 02 00 00 c0 0b 00 00	r2 = 0xbc0
    4209:	85 10 00 00 05 a4 00 00	call 0xa405
    4210:	79 a3 b8 ff 00 00 00 00	r3 = *(u64 *)(r10 - 0x48)
    4211:	79 a2 b0 ff 00 00 00 00	r2 = *(u64 *)(r10 - 0x50)
    4212:	79 71 18 00 00 00 00 00	r1 = *(u64 *)(r7 + 0x18)
    4213:	7b 1a d8 ff 00 00 00 00	*(u64 *)(r10 - 0x28) = r1
    4214:	79 71 10 00 00 00 00 00	r1 = *(u64 *)(r7 + 0x10)
    4215:	7b 1a d0 ff 00 00 00 00	*(u64 *)(r10 - 0x30) = r1
    4216:	79 71 08 00 00 00 00 00	r1 = *(u64 *)(r7 + 0x8)
    4217:	7b 1a c8 ff 00 00 00 00	*(u64 *)(r10 - 0x38) = r1
    4218:	79 71 00 00 00 00 00 00	r1 = *(u64 *)(r7 + 0x0)
    4219:	7b 1a c0 ff 00 00 00 00	*(u64 *)(r10 - 0x40) = r1
    4220:	18 01 00 00 06 dd f6 e1 00 00 00 00 d7 65 a1 93	r1 = -0x6c5e9a281e0922fa ll
    4222:	7b 1a e0 ff 00 00 00 00	*(u64 *)(r10 - 0x20) = r1
    4223:	18 01 00 00 d9 cb e1 46 00 00 00 00 ce eb 79 ac	r1 = -0x53861431b91e3427 ll
    4225:	7b 1a e8 ff 00 00 00 00	*(u64 *)(r10 - 0x18) = r1
    4226:	18 01 00 00 1c b4 85 ed 00 00 00 00 5f 5b 37 91	r1 = -0x6ec8a4a0127a4be4 ll
    4228:	7b 1a f0 ff 00 00 00 00	*(u64 *)(r10 - 0x10) = r1
    4229:	18 01 00 00 3a 8c f5 85 00 00 00 00 7e ff 00 a9	r1 = -0x56ff00817a0a73c6 ll
    4231:	7b 1a f8 ff 00 00 00 00	*(u64 *)(r10 - 0x8) = r1
    4232:	bf a1 00 00 00 00 00 00	r1 = r10
    4233:	07 01 00 00 a0 ff ff ff	r1 += -0x60
    4234:	bf a4 00 00 00 00 00 00	r4 = r10
    4235:	07 04 00 00 c0 ff ff ff	r4 += -0x40
    4236:	85 10 00 00 ac 9d 00 00	call 0x9dac
    4237:	79 a1 a0 ff 00 00 00 00	r1 = *(u64 *)(r10 - 0x60)
    4238:	79 a2 a8 ff 00 00 00 00	r2 = *(u64 *)(r10 - 0x58)
    4239:	05 00 ba ff 00 00 00 00	goto -0x46 <.text+0x8130>
    4240:	bf a1 00 00 00 00 00 00	r1 = r10
    4241:	07 01 00 00 90 ff ff ff	r1 += -0x70
    4242:	b7 02 00 00 c1 0b 00 00	r2 = 0xbc1
    4243:	85 10 00 00 e3 a3 00 00	call 0xa3e3
    4244:	79 a1 90 ff 00 00 00 00	r1 = *(u64 *)(r10 - 0x70)
    4245:	79 a2 98 ff 00 00 00 00	r2 = *(u64 *)(r10 - 0x68)
    4246:	05 00 b3 ff 00 00 00 00	goto -0x4d <.text+0x8130>
    4247:	bf 16 00 00 00 00 00 00	r6 = r1
    4248:	79 21 08 00 00 00 00 00	r1 = *(u64 *)(r2 + 0x8)
    4249:	55 01 09 00 00 00 00 00	if r1 != 0x0 goto +0x9 <.text+0x83f8>
    4250:	bf a1 00 00 00 00 00 00	r1 = r10
    4251:	07 01 00 00 80 ff ff ff	r1 += -0x80
    4252:	b7 02 00 00 bd 0b 00 00	r2 = 0xbbd
    4253:	85 10 00 00 d9 a3 00 00	call 0xa3d9
    4254:	79 a1 80 ff 00 00 00 00	r1 = *(u64 *)(r10 - 0x80)
    4255:	79 a2 88 ff 00 00 00 00	r2 = *(u64 *)(r10 - 0x78)
    4256:	7b 26 08 00 00 00 00 00	*(u64 *)(r6 + 0x8) = r2
    4257:	7b 16 00 00 00 00 00 00	*(u64 *)(r6 + 0x0) = r1
    4258:	95 00 00 00 00 00 00 00	exit
    4259:	07 01 00 00 ff ff ff ff	r1 += -0x1
    4260:	7b 12 08 00 00 00 00 00	*(u64 *)(r2 + 0x8) = r1
    4261:	79 21 00 00 00 00 00 00	r1 = *(u64 *)(r2 + 0x0)
    4262:	bf 13 00 00 00 00 00 00	r3 = r1
    4263:	07 03 00 00 30 00 00 00	r3 += 0x30
    4264:	7b 32 00 00 00 00 00 00	*(u64 *)(r2 + 0x0) = r3
    4265:	b7 02 00 00 00 00 00 00	r2 = 0x0
    4266:	7b 2a d8 ff 00 00 00 00	*(u64 *)(r10 - 0x28) = r2
    4267:	7b 2a d0 ff 00 00 00 00	*(u64 *)(r10 - 0x30) = r2
    4268:	7b 2a c8 ff 00 00 00 00	*(u64 *)(r10 - 0x38) = r2
    4269:	7b 2a c0 ff 00 00 00 00	*(u64 *)(r10 - 0x40) = r2
    4270:	79 17 00 00 00 00 00 00	r7 = *(u64 *)(r1 + 0x0)
    4271:	79 72 00 00 00 00 00 00	r2 = *(u64 *)(r7 + 0x0)
    4272:	15 02 02 00 00 00 00 00	if r2 == 0x0 goto +0x2 <.text+0x8478>
    4273:	b7 02 00 00 01 00 00 00	r2 = 0x1
    4274:	05 00 0a 00 00 00 00 00	goto +0xa <.text+0x84c8>
    4275:	79 72 08 00 00 00 00 00	r2 = *(u64 *)(r7 + 0x8)
    4276:	79 a3 c8 ff 00 00 00 00	r3 = *(u64 *)(r10 - 0x38)
    4277:	5d 32 fb ff 00 00 00 00	if r2 != r3 goto -0x5 <.text+0x8468>
    4278:	79 72 10 00 00 00 00 00	r2 = *(u64 *)(r7 + 0x10)
    4279:	79 a3 d0 ff 00 00 00 00	r3 = *(u64 *)(r10 - 0x30)
    4280:	5d 32 f8 ff 00 00 00 00	if r2 != r3 goto -0x8 <.text+0x8468>
    4281:	b7 02 00 00 00 00 00 00	r2 = 0x0
    4282:	79 73 18 00 00 00 00 00	r3 = *(u64 *)(r7 + 0x18)
    4283:	79 a4 d8 ff 00 00 00 00	r4 = *(u64 *)(r10 - 0x28)
    4284:	5d 43 f4 ff 00 00 00 00	if r3 != r4 goto -0xc <.text+0x8468>
    4285:	55 02 06 00 00 00 00 00	if r2 != 0x0 goto +0x6 <.text+0x8500>
    4286:	71 12 2a 00 00 00 00 00	w2 = *(u8 *)(r1 + 0x2a)
    4287:	15 02 1f 00 00 00 00 00	if r2 == 0x0 goto +0x1f <.text+0x85d8>
    4288:	b7 02 00 00 02 00 00 00	r2 = 0x2
    4289:	7b 26 00 00 00 00 00 00	*(u64 *)(r6 + 0x0) = r2
    4290:	7b 16 08 00 00 00 00 00	*(u64 *)(r6 + 0x8) = r1
    4291:	05 00 de ff 00 00 00 00	goto -0x22 <.text+0x83f0>
    4292:	bf a1 00 00 00 00 00 00	r1 = r10
    4293:	07 01 00 00 b0 ff ff ff	r1 += -0x50
    4294:	b7 02 00 00 c0 0b 00 00	r2 = 0xbc0
    4295:	85 10 00 00 af a3 00 00	call 0xa3af
    4296:	79 a3 b8 ff 00 00 00 00	r3 = *(u64 *)(r10 - 0x48)
    4297:	79 a2 b0 ff 00 00 00 00	r2 = *(u64 *)(r10 - 0x50)
    4298:	79 71 18 00 00 00 00 00	r1 = *(u64 *)(r7 + 0x18)
    4299:	7b 1a d8 ff 00 00 00 00	*(u64 *)(r10 - 0x28) = r1
    4300:	79 71 10 00 00 00 00 00	r1 = *(u64 *)(r7 + 0x10)
    4301:	7b 1a d0 ff 00 00 00 00	*(u64 *)(r10 - 0x30) = r1
    4302:	79 71 08 00 00 00 00 00	r1 = *(u64 *)(r7 + 0x8)
    4303:	7b 1a c8 ff 00 00 00 00	*(u64 *)(r10 - 0x38) = r1
    4304:	79 71 00 00 00 00 00 00	r1 = *(u64 *)(r7 + 0x0)
    4305:	7b 1a c0 ff 00 00 00 00	*(u64 *)(r10 - 0x40) = r1
    4306:	b7 01 00 00 00 00 00 00	r1 = 0x0
    4307:	7b 1a e0 ff 00 00 00 00	*(u64 *)(r10 - 0x20) = r1
    4308:	7b 1a e8 ff 00 00 00 00	*(u64 *)(r10 - 0x18) = r1
    4309:	7b 1a f0 ff 00 00 00 00	*(u64 *)(r10 - 0x10) = r1
    4310:	7b 1a f8 ff 00 00 00 00	*(u64 *)(r10 - 0x8) = r1
    4311:	bf a1 00 00 00 00 00 00	r1 = r10
    4312:	07 01 00 00 a0 ff ff ff	r1 += -0x60
    4313:	bf a4 00 00 00 00 00 00	r4 = r10
    4314:	07 04 00 00 c0 ff ff ff	r4 += -0x40
    4315:	85 10 00 00 5d 9d 00 00	call 0x9d5d
    4316:	79 a1 a0 ff 00 00 00 00	r1 = *(u64 *)(r10 - 0x60)
    4317:	79 a2 a8 ff 00 00 00 00	r2 = *(u64 *)(r10 - 0x58)
    4318:	05 00 c1 ff 00 00 00 00	goto -0x3f <.text+0x83e0>
    4319:	bf a1 00 00 00 00 00 00	r1 = r10
    4320:	07 01 00 00 90 ff ff ff	r1 += -0x70
    4321:	b7 02 00 00 c1 0b 00 00	r2 = 0xbc1
    4322:	85 10 00 00 94 a3 00 00	call 0xa394
    4323:	79 a1 90 ff 00 00 00 00	r1 = *(u64 *)(r10 - 0x70)
    4324:	79 a2 98 ff 00 00 00 00	r2 = *(u64 *)(r10 - 0x68)
    4325:	05 00 ba ff 00 00 00 00	goto -0x46 <.text+0x83e0>
    4326:	bf 49 00 00 00 00 00 00	r9 = r4
    4327:	7b 2a 78 fe 00 00 00 00	*(u64 *)(r10 - 0x188) = r2
    4328:	7b 1a 38 ff 00 00 00 00	*(u64 *)(r10 - 0xc8) = r1
    4329:	b7 02 00 00 00 00 00 00	r2 = 0x0
    4330:	b7 03 00 00 00 00 00 00	r3 = 0x0
    4331:	79 51 e0 f0 00 00 00 00	r1 = *(u64 *)(r5 - 0xf20)
    4332:	7b 1a 80 fe 00 00 00 00	*(u64 *)(r10 - 0x180) = r1
    4333:	79 51 d8 f0 00 00 00 00	r1 = *(u64 *)(r5 - 0xf28)
    4334:	7b 1a 70 fe 00 00 00 00	*(u64 *)(r10 - 0x190) = r1
    4335:	79 51 c0 f0 00 00 00 00	r1 = *(u64 *)(r5 - 0xf40)
    4336:	7b 1a 90 fe 00 00 00 00	*(u64 *)(r10 - 0x170) = r1
    4337:	79 51 b8 f0 00 00 00 00	r1 = *(u64 *)(r5 - 0xf48)
    4338:	7b 1a 98 fe 00 00 00 00	*(u64 *)(r10 - 0x168) = r1
    4339:	79 51 b0 f0 00 00 00 00	r1 = *(u64 *)(r5 - 0xf50)
    4340:	7b 1a a0 fe 00 00 00 00	*(u64 *)(r10 - 0x160) = r1
    4341:	79 51 a8 f0 00 00 00 00	r1 = *(u64 *)(r5 - 0xf58)
    4342:	7b 1a a8 fe 00 00 00 00	*(u64 *)(r10 - 0x158) = r1
    4343:	79 51 a0 f0 00 00 00 00	r1 = *(u64 *)(r5 - 0xf60)
    4344:	7b 1a b0 fe 00 00 00 00	*(u64 *)(r10 - 0x150) = r1
    4345:	79 51 98 f0 00 00 00 00	r1 = *(u64 *)(r5 - 0xf68)
    4346:	7b 1a b8 fe 00 00 00 00	*(u64 *)(r10 - 0x148) = r1
    4347:	79 51 90 f0 00 00 00 00	r1 = *(u64 *)(r5 - 0xf70)
    4348:	7b 1a c0 fe 00 00 00 00	*(u64 *)(r10 - 0x140) = r1
    4349:	79 51 88 f0 00 00 00 00	r1 = *(u64 *)(r5 - 0xf78)
    4350:	7b 1a c8 fe 00 00 00 00	*(u64 *)(r10 - 0x138) = r1
    4351:	79 51 80 f0 00 00 00 00	r1 = *(u64 *)(r5 - 0xf80)
    4352:	7b 1a d0 fe 00 00 00 00	*(u64 *)(r10 - 0x130) = r1
    4353:	79 51 78 f0 00 00 00 00	r1 = *(u64 *)(r5 - 0xf88)
    4354:	7b 1a d8 fe 00 00 00 00	*(u64 *)(r10 - 0x128) = r1
    4355:	79 51 70 f0 00 00 00 00	r1 = *(u64 *)(r5 - 0xf90)
    4356:	7b 1a e0 fe 00 00 00 00	*(u64 *)(r10 - 0x120) = r1
    4357:	79 51 68 f0 00 00 00 00	r1 = *(u64 *)(r5 - 0xf98)
    4358:	7b 1a e8 fe 00 00 00 00	*(u64 *)(r10 - 0x118) = r1
    4359:	79 51 60 f0 00 00 00 00	r1 = *(u64 *)(r5 - 0xfa0)
    4360:	7b 1a f0 fe 00 00 00 00	*(u64 *)(r10 - 0x110) = r1
    4361:	79 51 58 f0 00 00 00 00	r1 = *(u64 *)(r5 - 0xfa8)
    4362:	7b 1a f8 fe 00 00 00 00	*(u64 *)(r10 - 0x108) = r1
    4363:	79 51 50 f0 00 00 00 00	r1 = *(u64 *)(r5 - 0xfb0)
    4364:	7b 1a 00 ff 00 00 00 00	*(u64 *)(r10 - 0x100) = r1
    4365:	79 51 48 f0 00 00 00 00	r1 = *(u64 *)(r5 - 0xfb8)
    4366:	7b 1a 10 ff 00 00 00 00	*(u64 *)(r10 - 0xf0) = r1
    4367:	79 51 40 f0 00 00 00 00	r1 = *(u64 *)(r5 - 0xfc0)
    4368:	7b 1a 88 fe 00 00 00 00	*(u64 *)(r10 - 0x178) = r1
    4369:	79 51 38 f0 00 00 00 00	r1 = *(u64 *)(r5 - 0xfc8)
    4370:	7b 1a 08 ff 00 00 00 00	*(u64 *)(r10 - 0xf8) = r1
    4371:	79 51 20 f0 00 00 00 00	r1 = *(u64 *)(r5 - 0xfe0)
    4372:	7b 1a 30 ff 00 00 00 00	*(u64 *)(r10 - 0xd0) = r1
    4373:	79 51 18 f0 00 00 00 00	r1 = *(u64 *)(r5 - 0xfe8)
    4374:	7b 1a 18 ff 00 00 00 00	*(u64 *)(r10 - 0xe8) = r1
    4375:	79 51 10 f0 00 00 00 00	r1 = *(u64 *)(r5 - 0xff0)
    4376:	7b 1a 28 ff 00 00 00 00	*(u64 *)(r10 - 0xd8) = r1
    4377:	79 51 08 f0 00 00 00 00	r1 = *(u64 *)(r5 - 0xff8)
    4378:	7b 1a 20 ff 00 00 00 00	*(u64 *)(r10 - 0xe0) = r1
    4379:	79 51 00 f0 00 00 00 00	r1 = *(u64 *)(r5 - 0x1000)
    4380:	7b 9a 40 ff 00 00 00 00	*(u64 *)(r10 - 0xc0) = r9
    4381:	7b 1a 48 ff 00 00 00 00	*(u64 *)(r10 - 0xb8) = r1
    4382:	4f 19 00 00 00 00 00 00	r9 |= r1
    4383:	79 51 d0 f0 00 00 00 00	r1 = *(u64 *)(r5 - 0xf30)
    4384:	7b 1a 58 fe 00 00 00 00	*(u64 *)(r10 - 0x1a8) = r1
    4385:	79 51 c8 f0 00 00 00 00	r1 = *(u64 *)(r5 - 0xf38)
    4386:	7b 1a 60 fe 00 00 00 00	*(u64 *)(r10 - 0x1a0) = r1
    4387:	79 51 28 f0 00 00 00 00	r1 = *(u64 *)(r5 - 0xfd8)
    4388:	7b 1a 68 fe 00 00 00 00	*(u64 *)(r10 - 0x198) = r1
    4389:	79 58 30 f0 00 00 00 00	r8 = *(u64 *)(r5 - 0xfd0)
    4390:	b7 04 00 00 00 00 00 00	r4 = 0x0
    4391:	15 09 35 00 00 00 00 00	if r9 == 0x0 goto +0x35 <.text+0x89c8>
    4392:	79 86 00 00 00 00 00 00	r6 = *(u64 *)(r8 + 0x0)
    4393:	15 06 33 00 00 00 00 00	if r6 == 0x0 goto +0x33 <.text+0x89c8>
    4394:	79 87 08 00 00 00 00 00	r7 = *(u64 *)(r8 + 0x8)
    4395:	bf a1 00 00 00 00 00 00	r1 = r10
    4396:	07 01 00 00 90 ff ff ff	r1 += -0x70
    4397:	79 a2 48 ff 00 00 00 00	r2 = *(u64 *)(r10 - 0xb8)
    4398:	bf 64 00 00 00 00 00 00	r4 = r6
    4399:	b7 05 00 00 00 00 00 00	r5 = 0x0
    4400:	85 10 00 00 37 d3 00 00	call 0xd337
    4401:	bf a1 00 00 00 00 00 00	r1 = r10
    4402:	07 01 00 00 a0 ff ff ff	r1 += -0x60
    4403:	79 a2 40 ff 00 00 00 00	r2 = *(u64 *)(r10 - 0xc0)
    4404:	b7 03 00 00 00 00 00 00	r3 = 0x0
    4405:	bf 64 00 00 00 00 00 00	r4 = r6
    4406:	b7 05 00 00 00 00 00 00	r5 = 0x0
    4407:	85 10 00 00 30 d3 00 00	call 0xd330
    4408:	b7 02 00 00 01 00 00 00	r2 = 0x1
    4409:	79 a3 98 ff 00 00 00 00	r3 = *(u64 *)(r10 - 0x68)
    4410:	b7 01 00 00 01 00 00 00	r1 = 0x1
    4411:	55 03 01 00 00 00 00 00	if r3 != 0x0 goto +0x1 <.text+0x88c8>
    4412:	b7 01 00 00 00 00 00 00	r1 = 0x0
    4413:	79 a3 a8 ff 00 00 00 00	r3 = *(u64 *)(r10 - 0x58)
    4414:	79 a4 90 ff 00 00 00 00	r4 = *(u64 *)(r10 - 0x70)
    4415:	bf 36 00 00 00 00 00 00	r6 = r3
    4416:	0f 46 00 00 00 00 00 00	r6 += r4
    4417:	2d 63 01 00 00 00 00 00	if r3 > r6 goto +0x1 <.text+0x88f8>
    4418:	b7 02 00 00 00 00 00 00	r2 = 0x0
    4419:	b7 00 00 00 00 00 00 00	r0 = 0x0
    4420:	15 07 2b 01 00 00 00 00	if r7 == 0x0 goto +0x12b <.text+0x9260>
    4421:	4f 21 00 00 00 00 00 00	r1 |= r2
    4422:	57 01 00 00 01 00 00 00	r1 &= 0x1
    4423:	55 01 28 01 00 00 00 00	if r1 != 0x0 goto +0x128 <.text+0x9260>
    4424:	79 a2 a0 ff 00 00 00 00	r2 = *(u64 *)(r10 - 0x60)
    4425:	7b 2a 50 fe 00 00 00 00	*(u64 *)(r10 - 0x1b0) = r2
    4426:	bf a1 00 00 00 00 00 00	r1 = r10
    4427:	07 01 00 00 80 ff ff ff	r1 += -0x80
    4428:	bf 63 00 00 00 00 00 00	r3 = r6
    4429:	bf 74 00 00 00 00 00 00	r4 = r7
    4430:	b7 05 00 00 00 00 00 00	r5 = 0x0
    4431:	85 10 00 00 dc ce 00 00	call 0xcedc
    4432:	b7 03 00 00 01 00 00 00	r3 = 0x1
    4433:	b7 01 00 00 01 00 00 00	r1 = 0x1
    4434:	79 a2 50 fe 00 00 00 00	r2 = *(u64 *)(r10 - 0x1b0)
    4435:	2d 27 01 00 00 00 00 00	if r7 > r2 goto +0x1 <.text+0x8988>
    4436:	b7 01 00 00 00 00 00 00	r1 = 0x0
    4437:	b7 02 00 00 00 00 00 00	r2 = 0x0
    4438:	15 06 01 00 00 00 00 00	if r6 == 0x0 goto +0x1 <.text+0x89a0>
    4439:	b7 01 00 00 00 00 00 00	r1 = 0x0
    4440:	b7 04 00 00 00 00 00 00	r4 = 0x0
    4441:	55 01 01 00 00 00 00 00	if r1 != 0x0 goto +0x1 <.text+0x89b8>
    4442:	79 a4 88 ff 00 00 00 00	r4 = *(u64 *)(r10 - 0x78)
    4443:	55 01 01 00 00 00 00 00	if r1 != 0x0 goto +0x1 <.text+0x89c8>
    4444:	79 a3 80 ff 00 00 00 00	r3 = *(u64 *)(r10 - 0x80)
    4445:	b7 05 00 00 00 00 00 00	r5 = 0x0
    4446:	7b 3a 50 fe 00 00 00 00	*(u64 *)(r10 - 0x1b0) = r3
    4447:	7b 4a 48 fe 00 00 00 00	*(u64 *)(r10 - 0x1b8) = r4
    4448:	15 09 35 00 00 00 00 00	if r9 == 0x0 goto +0x35 <.text+0x8b90>
    4449:	79 86 10 00 00 00 00 00	r6 = *(u64 *)(r8 + 0x10)
    4450:	15 06 33 00 00 00 00 00	if r6 == 0x0 goto +0x33 <.text+0x8b90>
    4451:	79 89 18 00 00 00 00 00	r9 = *(u64 *)(r8 + 0x18)
    4452:	bf a1 00 00 00 00 00 00	r1 = r10
    4453:	07 01 00 00 60 ff ff ff	r1 += -0xa0
    4454:	79 a2 48 ff 00 00 00 00	r2 = *(u64 *)(r10 - 0xb8)
    4455:	b7 03 00 00 00 00 00 00	r3 = 0x0
    4456:	bf 64 00 00 00 00 00 00	r4 = r6
    4457:	85 10 00 00 fe d2 00 00	call 0xd2fe
    4458:	bf a1 00 00 00 00 00 00	r1 = r10
    4459:	07 01 00 00 70 ff ff ff	r1 += -0x90
    4460:	79 a2 40 ff 00 00 00 00	r2 = *(u64 *)(r10 - 0xc0)
    4461:	b7 03 00 00 00 00 00 00	r3 = 0x0
    4462:	bf 64 00 00 00 00 00 00	r4 = r6
    4463:	b7 05 00 00 00 00 00 00	r5 = 0x0
    4464:	85 10 00 00 f7 d2 00 00	call 0xd2f7
    4465:	b7 02 00 00 01 00 00 00	r2 = 0x1
    4466:	79 a3 68 ff 00 00 00 00	r3 = *(u64 *)(r10 - 0x98)
    4467:	b7 01 00 00 01 00 00 00	r1 = 0x1
    4468:	55 03 01 00 00 00 00 00	if r3 != 0x0 goto +0x1 <.text+0x8a90>
    4469:	b7 01 00 00 00 00 00 00	r1 = 0x0
    4470:	79 a3 78 ff 00 00 00 00	r3 = *(u64 *)(r10 - 0x88)
    4471:	79 a4 60 ff 00 00 00 00	r4 = *(u64 *)(r10 - 0xa0)
    4472:	bf 36 00 00 00 00 00 00	r6 = r3
    4473:	0f 46 00 00 00 00 00 00	r6 += r4
    4474:	2d 63 01 00 00 00 00 00	if r3 > r6 goto +0x1 <.text+0x8ac0>
    4475:	b7 02 00 00 00 00 00 00	r2 = 0x0
    4476:	b7 00 00 00 00 00 00 00	r0 = 0x0
    4477:	15 09 f2 00 00 00 00 00	if r9 == 0x0 goto +0xf2 <.text+0x9260>
    4478:	4f 21 00 00 00 00 00 00	r1 |= r2
    4479:	57 01 00 00 01 00 00 00	r1 &= 0x1
    4480:	55 01 ef 00 00 00 00 00	if r1 != 0x0 goto +0xef <.text+0x9260>
    4481:	79 a7 70 ff 00 00 00 00	r7 = *(u64 *)(r10 - 0x90)
    4482:	bf a1 00 00 00 00 00 00	r1 = r10
    4483:	07 01 00 00 50 ff ff ff	r1 += -0xb0
    4484:	bf 72 00 00 00 00 00 00	r2 = r7
    4485:	bf 63 00 00 00 00 00 00	r3 = r6
    4486:	bf 94 00 00 00 00 00 00	r4 = r9
    4487:	b7 05 00 00 00 00 00 00	r5 = 0x0
    4488:	85 10 00 00 a3 ce 00 00	call 0xcea3
    4489:	b7 02 00 00 01 00 00 00	r2 = 0x1
    4490:	b7 01 00 00 01 00 00 00	r1 = 0x1
    4491:	2d 79 01 00 00 00 00 00	if r9 > r7 goto +0x1 <.text+0x8b48>
    4492:	b7 01 00 00 00 00 00 00	r1 = 0x0
    4493:	79 a3 50 fe 00 00 00 00	r3 = *(u64 *)(r10 - 0x1b0)
    4494:	15 06 01 00 00 00 00 00	if r6 == 0x0 goto +0x1 <.text+0x8b60>
    4495:	b7 01 00 00 00 00 00 00	r1 = 0x0
    4496:	79 a4 48 fe 00 00 00 00	r4 = *(u64 *)(r10 - 0x1b8)
    4497:	b7 05 00 00 00 00 00 00	r5 = 0x0
    4498:	55 01 01 00 00 00 00 00	if r1 != 0x0 goto +0x1 <.text+0x8b80>
    4499:	79 a5 58 ff 00 00 00 00	r5 = *(u64 *)(r10 - 0xa8)
    4500:	55 01 01 00 00 00 00 00	if r1 != 0x0 goto +0x1 <.text+0x8b90>
    4501:	79 a2 50 ff 00 00 00 00	r2 = *(u64 *)(r10 - 0xb0)
    4502:	bf 39 00 00 00 00 00 00	r9 = r3
    4503:	7b 2a 40 fe 00 00 00 00	*(u64 *)(r10 - 0x1c0) = r2
    4504:	0f 29 00 00 00 00 00 00	r9 += r2
    4505:	b7 00 00 00 00 00 00 00	r0 = 0x0
    4506:	b7 02 00 00 01 00 00 00	r2 = 0x1
    4507:	b7 01 00 00 01 00 00 00	r1 = 0x1
    4508:	2d 93 01 00 00 00 00 00	if r3 > r9 goto +0x1 <.text+0x8bd0>
    4509:	b7 01 00 00 00 00 00 00	r1 = 0x0
    4510:	bf 46 00 00 00 00 00 00	r6 = r4
    4511:	0f 56 00 00 00 00 00 00	r6 += r5
    4512:	0f 16 00 00 00 00 00 00	r6 += r1
    4513:	2d 64 01 00 00 00 00 00	if r4 > r6 goto +0x1 <.text+0x8bf8>
    4514:	b7 02 00 00 00 00 00 00	r2 = 0x0
    4515:	1d 46 01 00 00 00 00 00	if r6 == r4 goto +0x1 <.text+0x8c08>
    4516:	bf 21 00 00 00 00 00 00	r1 = r2
    4517:	57 01 00 00 01 00 00 00	r1 &= 0x1
    4518:	55 01 c9 00 00 00 00 00	if r1 != 0x0 goto +0xc9 <.text+0x9260>
    4519:	b7 02 00 00 01 00 00 00	r2 = 0x1
    4520:	b7 01 00 00 01 00 00 00	r1 = 0x1
    4521:	79 a3 40 ff 00 00 00 00	r3 = *(u64 *)(r10 - 0xc0)
    4522:	3d 39 01 00 00 00 00 00	if r9 >= r3 goto +0x1 <.text+0x8c40>
    4523:	b7 01 00 00 00 00 00 00	r1 = 0x0
    4524:	79 a3 48 ff 00 00 00 00	r3 = *(u64 *)(r10 - 0xb8)
    4525:	3d 36 01 00 00 00 00 00	if r6 >= r3 goto +0x1 <.text+0x8c58>
    4526:	b7 02 00 00 00 00 00 00	r2 = 0x0
    4527:	79 a3 48 ff 00 00 00 00	r3 = *(u64 *)(r10 - 0xb8)
    4528:	1d 63 01 00 00 00 00 00	if r3 == r6 goto +0x1 <.text+0x8c70>
    4529:	bf 21 00 00 00 00 00 00	r1 = r2
    4530:	57 01 00 00 01 00 00 00	r1 &= 0x1
    4531:	55 01 b4 00 00 00 00 00	if r1 != 0x0 goto +0xb4 <.text+0x9220>
    4532:	7b 5a 38 fe 00 00 00 00	*(u64 *)(r10 - 0x1c8) = r5
    4533:	79 a1 78 fe 00 00 00 00	r1 = *(u64 *)(r10 - 0x188)
    4534:	79 12 08 00 00 00 00 00	r2 = *(u64 *)(r1 + 0x8)
    4535:	79 11 10 00 00 00 00 00	r1 = *(u64 *)(r1 + 0x10)
    4536:	79 10 30 00 00 00 00 00	r0 = *(u64 *)(r1 + 0x30)
    4537:	79 a1 70 fe 00 00 00 00	r1 = *(u64 *)(r10 - 0x190)
    4538:	7b 1a d8 f0 00 00 00 00	*(u64 *)(r10 - 0xf28) = r1
    4539:	79 a1 80 fe 00 00 00 00	r1 = *(u64 *)(r10 - 0x180)
    4540:	7b 1a e0 f0 00 00 00 00	*(u64 *)(r10 - 0xf20) = r1
    4541:	79 a1 58 fe 00 00 00 00	r1 = *(u64 *)(r10 - 0x1a8)
    4542:	7b 1a d0 f0 00 00 00 00	*(u64 *)(r10 - 0xf30) = r1
    4543:	79 a1 60 fe 00 00 00 00	r1 = *(u64 *)(r10 - 0x1a0)
    4544:	7b 1a c8 f0 00 00 00 00	*(u64 *)(r10 - 0xf38) = r1
    4545:	79 a1 90 fe 00 00 00 00	r1 = *(u64 *)(r10 - 0x170)
    4546:	7b 1a c0 f0 00 00 00 00	*(u64 *)(r10 - 0xf40) = r1
    4547:	79 a1 98 fe 00 00 00 00	r1 = *(u64 *)(r10 - 0x168)
    4548:	7b 1a b8 f0 00 00 00 00	*(u64 *)(r10 - 0xf48) = r1
    4549:	79 a1 a0 fe 00 00 00 00	r1 = *(u64 *)(r10 - 0x160)
    4550:	7b 1a b0 f0 00 00 00 00	*(u64 *)(r10 - 0xf50) = r1
    4551:	79 a1 a8 fe 00 00 00 00	r1 = *(u64 *)(r10 - 0x158)
    4552:	7b 1a a8 f0 00 00 00 00	*(u64 *)(r10 - 0xf58) = r1
    4553:	79 a1 b0 fe 00 00 00 00	r1 = *(u64 *)(r10 - 0x150)
    4554:	7b 1a a0 f0 00 00 00 00	*(u64 *)(r10 - 0xf60) = r1
    4555:	79 a1 b8 fe 00 00 00 00	r1 = *(u64 *)(r10 - 0x148)
    4556:	7b 1a 98 f0 00 00 00 00	*(u64 *)(r10 - 0xf68) = r1
    4557:	79 a1 c0 fe 00 00 00 00	r1 = *(u64 *)(r10 - 0x140)
    4558:	7b 1a 90 f0 00 00 00 00	*(u64 *)(r10 - 0xf70) = r1
    4559:	79 a1 c8 fe 00 00 00 00	r1 = *(u64 *)(r10 - 0x138)
    4560:	7b 1a 88 f0 00 00 00 00	*(u64 *)(r10 - 0xf78) = r1
    4561:	79 a1 d0 fe 00 00 00 00	r1 = *(u64 *)(r10 - 0x130)
    4562:	7b 1a 80 f0 00 00 00 00	*(u64 *)(r10 - 0xf80) = r1
    4563:	79 a1 d8 fe 00 00 00 00	r1 = *(u64 *)(r10 - 0x128)
    4564:	7b 1a 78 f0 00 00 00 00	*(u64 *)(r10 - 0xf88) = r1
    4565:	79 a1 e0 fe 00 00 00 00	r1 = *(u64 *)(r10 - 0x120)
    4566:	7b 1a 70 f0 00 00 00 00	*(u64 *)(r10 - 0xf90) = r1
    4567:	79 a1 e8 fe 00 00 00 00	r1 = *(u64 *)(r10 - 0x118)
    4568:	7b 1a 68 f0 00 00 00 00	*(u64 *)(r10 - 0xf98) = r1
    4569:	79 a1 f0 fe 00 00 00 00	r1 = *(u64 *)(r10 - 0x110)
    4570:	7b 1a 60 f0 00 00 00 00	*(u64 *)(r10 - 0xfa0) = r1
    4571:	79 a1 f8 fe 00 00 00 00	r1 = *(u64 *)(r10 - 0x108)
    4572:	7b 1a 58 f0 00 00 00 00	*(u64 *)(r10 - 0xfa8) = r1
    4573:	79 a1 00 ff 00 00 00 00	r1 = *(u64 *)(r10 - 0x100)
    4574:	7b 1a 50 f0 00 00 00 00	*(u64 *)(r10 - 0xfb0) = r1
    4575:	79 a1 88 fe 00 00 00 00	r1 = *(u64 *)(r10 - 0x178)
    4576:	7b 1a 40 f0 00 00 00 00	*(u64 *)(r10 - 0xfc0) = r1
    4577:	79 a1 10 ff 00 00 00 00	r1 = *(u64 *)(r10 - 0xf0)
    4578:	7b 1a 48 f0 00 00 00 00	*(u64 *)(r10 - 0xfb8) = r1
    4579:	79 a1 08 ff 00 00 00 00	r1 = *(u64 *)(r10 - 0xf8)
    4580:	7b 1a 38 f0 00 00 00 00	*(u64 *)(r10 - 0xfc8) = r1
    4581:	79 a1 68 fe 00 00 00 00	r1 = *(u64 *)(r10 - 0x198)
    4582:	7b 1a 30 f0 00 00 00 00	*(u64 *)(r10 - 0xfd0) = r1
    4583:	79 a1 30 ff 00 00 00 00	r1 = *(u64 *)(r10 - 0xd0)
    4584:	7b 1a 28 f0 00 00 00 00	*(u64 *)(r10 - 0xfd8) = r1
    4585:	79 a1 18 ff 00 00 00 00	r1 = *(u64 *)(r10 - 0xe8)
    4586:	7b 1a 20 f0 00 00 00 00	*(u64 *)(r10 - 0xfe0) = r1
    4587:	79 a1 28 ff 00 00 00 00	r1 = *(u64 *)(r10 - 0xd8)
    4588:	7b 1a 18 f0 00 00 00 00	*(u64 *)(r10 - 0xfe8) = r1
    4589:	79 a1 20 ff 00 00 00 00	r1 = *(u64 *)(r10 - 0xe0)
    4590:	7b 1a 10 f0 00 00 00 00	*(u64 *)(r10 - 0xff0) = r1
    4591:	b7 01 00 00 01 00 00 00	r1 = 0x1
    4592:	79 a3 40 ff 00 00 00 00	r3 = *(u64 *)(r10 - 0xc0)
    4593:	2d 39 01 00 00 00 00 00	if r9 > r3 goto +0x1 <.text+0x8e78>
    4594:	b7 01 00 00 00 00 00 00	r1 = 0x0
    4595:	79 a4 48 ff 00 00 00 00	r4 = *(u64 *)(r10 - 0xb8)
    4596:	7b 4a 08 f0 00 00 00 00	*(u64 *)(r10 - 0xff8) = r4
    4597:	1f 64 00 00 00 00 00 00	r4 -= r6
    4598:	1f 14 00 00 00 00 00 00	r4 -= r1
    4599:	79 a3 40 ff 00 00 00 00	r3 = *(u64 *)(r10 - 0xc0)
    4600:	7b 3a 00 f0 00 00 00 00	*(u64 *)(r10 - 0x1000) = r3
    4601:	1f 93 00 00 00 00 00 00	r3 -= r9
    4602:	bf a1 00 00 00 00 00 00	r1 = r10
    4603:	07 01 00 00 b0 ff ff ff	r1 += -0x50
    4604:	bf a5 00 00 00 00 00 00	r5 = r10
    4605:	8d 00 00 00 00 00 00 00	callx r0
    4606:	79 a1 b0 ff 00 00 00 00	r1 = *(u64 *)(r10 - 0x50)
    4607:	15 01 6f 00 00 00 00 00	if r1 == 0x0 goto +0x6f <.text+0x9258>
    4608:	79 a2 b8 ff 00 00 00 00	r2 = *(u64 *)(r10 - 0x48)
    4609:	bf 21 00 00 00 00 00 00	r1 = r2
    4610:	0f 91 00 00 00 00 00 00	r1 += r9
    4611:	b7 00 00 00 00 00 00 00	r0 = 0x0
    4612:	b7 04 00 00 01 00 00 00	r4 = 0x1
    4613:	b7 03 00 00 01 00 00 00	r3 = 0x1
    4614:	2d 12 01 00 00 00 00 00	if r2 > r1 goto +0x1 <.text+0x8f20>
    4615:	b7 03 00 00 00 00 00 00	r3 = 0x0
    4616:	79 a5 c0 ff 00 00 00 00	r5 = *(u64 *)(r10 - 0x40)
    4617:	bf 52 00 00 00 00 00 00	r2 = r5
    4618:	0f 62 00 00 00 00 00 00	r2 += r6
    4619:	0f 32 00 00 00 00 00 00	r2 += r3
    4620:	2d 25 01 00 00 00 00 00	if r5 > r2 goto +0x1 <.text+0x8f50>
    4621:	b7 04 00 00 00 00 00 00	r4 = 0x0
    4622:	1d 52 01 00 00 00 00 00	if r2 == r5 goto +0x1 <.text+0x8f60>
    4623:	bf 43 00 00 00 00 00 00	r3 = r4
    4624:	57 03 00 00 01 00 00 00	r3 &= 0x1
    4625:	55 03 5e 00 00 00 00 00	if r3 != 0x0 goto +0x5e <.text+0x9260>
    4626:	79 a4 20 ff 00 00 00 00	r4 = *(u64 *)(r10 - 0xe0)
    4627:	bf 43 00 00 00 00 00 00	r3 = r4
    4628:	0f 13 00 00 00 00 00 00	r3 += r1
    4629:	b7 00 00 00 01 00 00 00	r0 = 0x1
    4630:	b7 05 00 00 01 00 00 00	r5 = 0x1
    4631:	2d 34 01 00 00 00 00 00	if r4 > r3 goto +0x1 <.text+0x8fa8>
    4632:	b7 05 00 00 00 00 00 00	r5 = 0x0
    4633:	79 a6 28 ff 00 00 00 00	r6 = *(u64 *)(r10 - 0xd8)
    4634:	bf 64 00 00 00 00 00 00	r4 = r6
    4635:	0f 24 00 00 00 00 00 00	r4 += r2
    4636:	0f 54 00 00 00 00 00 00	r4 += r5
    4637:	2d 46 01 00 00 00 00 00	if r6 > r4 goto +0x1 <.text+0x8fd8>
    4638:	b7 00 00 00 00 00 00 00	r0 = 0x0
    4639:	1d 64 01 00 00 00 00 00	if r4 == r6 goto +0x1 <.text+0x8fe8>
    4640:	bf 05 00 00 00 00 00 00	r5 = r0
    4641:	57 05 00 00 01 00 00 00	r5 &= 0x1
    4642:	b7 00 00 00 00 00 00 00	r0 = 0x0
    4643:	55 05 4c 00 00 00 00 00	if r5 != 0x0 goto +0x4c <.text+0x9260>
    4644:	79 a6 d0 ff 00 00 00 00	r6 = *(u64 *)(r10 - 0x30)
    4645:	79 a9 c8 ff 00 00 00 00	r9 = *(u64 *)(r10 - 0x38)
    4646:	b7 05 00 00 00 00 00 00	r5 = 0x0
    4647:	7b 5a 48 ff 00 00 00 00	*(u64 *)(r10 - 0xb8) = r5
    4648:	b7 05 00 00 01 00 00 00	r5 = 0x1
    4649:	79 a0 18 ff 00 00 00 00	r0 = *(u64 *)(r10 - 0xe8)
    4650:	2d 09 01 00 00 00 00 00	if r9 > r0 goto +0x1 <.text+0x9040>
    4651:	b7 05 00 00 00 00 00 00	r5 = 0x0
    4652:	79 a8 30 ff 00 00 00 00	r8 = *(u64 *)(r10 - 0xd0)
    4653:	7b 6a 40 ff 00 00 00 00	*(u64 *)(r10 - 0xc0) = r6
    4654:	1f 68 00 00 00 00 00 00	r8 -= r6
    4655:	1f 58 00 00 00 00 00 00	r8 -= r5
    4656:	79 a6 18 ff 00 00 00 00	r6 = *(u64 *)(r10 - 0xe8)
    4657:	bf 60 00 00 00 00 00 00	r0 = r6
    4658:	7b 9a 28 ff 00 00 00 00	*(u64 *)(r10 - 0xd8) = r9
    4659:	1f 90 00 00 00 00 00 00	r0 -= r9
    4660:	b7 05 00 00 01 00 00 00	r5 = 0x1
    4661:	2d 60 01 00 00 00 00 00	if r0 > r6 goto +0x1 <.text+0x9098>
    4662:	b7 05 00 00 00 00 00 00	r5 = 0x0
    4663:	b7 09 00 00 01 00 00 00	r9 = 0x1
    4664:	79 a6 30 ff 00 00 00 00	r6 = *(u64 *)(r10 - 0xd0)
    4665:	2d 68 01 00 00 00 00 00	if r8 > r6 goto +0x1 <.text+0x90b8>
    4666:	b7 09 00 00 00 00 00 00	r9 = 0x0
    4667:	79 a6 30 ff 00 00 00 00	r6 = *(u64 *)(r10 - 0xd0)
    4668:	1d 68 01 00 00 00 00 00	if r8 == r6 goto +0x1 <.text+0x90d0>
    4669:	bf 95 00 00 00 00 00 00	r5 = r9
    4670:	b7 07 00 00 00 00 00 00	r7 = 0x0
    4671:	55 05 01 00 00 00 00 00	if r5 != 0x0 goto +0x1 <.text+0x90e8>
    4672:	bf 07 00 00 00 00 00 00	r7 = r0
    4673:	79 a0 f0 ff 00 00 00 00	r0 = *(u64 *)(r10 - 0x10)
    4674:	7b 0a 30 ff 00 00 00 00	*(u64 *)(r10 - 0xd0) = r0
    4675:	79 a0 e8 ff 00 00 00 00	r0 = *(u64 *)(r10 - 0x18)
    4676:	7b 0a 18 ff 00 00 00 00	*(u64 *)(r10 - 0xe8) = r0
    4677:	79 a0 e0 ff 00 00 00 00	r0 = *(u64 *)(r10 - 0x20)
    4678:	7b 0a 20 ff 00 00 00 00	*(u64 *)(r10 - 0xe0) = r0
    4679:	79 a0 d8 ff 00 00 00 00	r0 = *(u64 *)(r10 - 0x28)
    4680:	79 a9 f8 ff 00 00 00 00	r9 = *(u64 *)(r10 - 0x8)
    4681:	55 05 01 00 00 00 00 00	if r5 != 0x0 goto +0x1 <.text+0x9138>
    4682:	7b 8a 48 ff 00 00 00 00	*(u64 *)(r10 - 0xb8) = r8
    4683:	79 a5 38 ff 00 00 00 00	r5 = *(u64 *)(r10 - 0xc8)
    4684:	79 a6 40 fe 00 00 00 00	r6 = *(u64 *)(r10 - 0x1c0)
    4685:	7b 65 78 00 00 00 00 00	*(u64 *)(r5 + 0x78) = r6
    4686:	79 a6 50 fe 00 00 00 00	r6 = *(u64 *)(r10 - 0x1b0)
    4687:	7b 65 68 00 00 00 00 00	*(u64 *)(r5 + 0x68) = r6
    4688:	79 a6 28 ff 00 00 00 00	r6 = *(u64 *)(r10 - 0xd8)
    4689:	7b 65 58 00 00 00 00 00	*(u64 *)(r5 + 0x58) = r6
    4690:	7b 15 48 00 00 00 00 00	*(u64 *)(r5 + 0x48) = r1
    4691:	79 a1 18 ff 00 00 00 00	r1 = *(u64 *)(r10 - 0xe8)
    4692:	7b 15 38 00 00 00 00 00	*(u64 *)(r5 + 0x38) = r1
    4693:	7b 05 28 00 00 00 00 00	*(u64 *)(r5 + 0x28) = r0
    4694:	7b 35 08 00 00 00 00 00	*(u64 *)(r5 + 0x8) = r3
    4695:	7b 95 88 00 00 00 00 00	*(u64 *)(r5 + 0x88) = r9
    4696:	79 a1 38 fe 00 00 00 00	r1 = *(u64 *)(r10 - 0x1c8)
    4697:	7b 15 80 00 00 00 00 00	*(u64 *)(r5 + 0x80) = r1
    4698:	79 a1 48 fe 00 00 00 00	r1 = *(u64 *)(r10 - 0x1b8)
    4699:	7b 15 70 00 00 00 00 00	*(u64 *)(r5 + 0x70) = r1
    4700:	79 a1 40 ff 00 00 00 00	r1 = *(u64 *)(r10 - 0xc0)
    4701:	7b 15 60 00 00 00 00 00	*(u64 *)(r5 + 0x60) = r1
    4702:	7b 25 50 00 00 00 00 00	*(u64 *)(r5 + 0x50) = r2
    4703:	79 a1 30 ff 00 00 00 00	r1 = *(u64 *)(r10 - 0xd0)
    4704:	7b 15 40 00 00 00 00 00	*(u64 *)(r5 + 0x40) = r1
    4705:	79 a1 20 ff 00 00 00 00	r1 = *(u64 *)(r10 - 0xe0)
    4706:	7b 15 30 00 00 00 00 00	*(u64 *)(r5 + 0x30) = r1
    4707:	7b 45 10 00 00 00 00 00	*(u64 *)(r5 + 0x10) = r4
    4708:	79 a1 48 ff 00 00 00 00	r1 = *(u64 *)(r10 - 0xb8)
    4709:	7b 15 20 00 00 00 00 00	*(u64 *)(r5 + 0x20) = r1
    4710:	7b 75 18 00 00 00 00 00	*(u64 *)(r5 + 0x18) = r7
    4711:	05 00 05 00 00 00 00 00	goto +0x5 <.text+0x9248>
    4712:	79 a1 38 ff 00 00 00 00	r1 = *(u64 *)(r10 - 0xc8)
    4713:	07 01 00 00 08 00 00 00	r1 += 0x8
    4714:	b7 02 00 00 00 00 00 00	r2 = 0x0
    4715:	b7 03 00 00 88 00 00 00	r3 = 0x88
    4716:	85 10 00 00 75 c5 00 00	call 0xc575
    4717:	b7 00 00 00 01 00 00 00	r0 = 0x1
    4718:	05 00 01 00 00 00 00 00	goto +0x1 <.text+0x9260>
    4719:	b7 00 00 00 00 00 00 00	r0 = 0x0
    4720:	79 a1 38 ff 00 00 00 00	r1 = *(u64 *)(r10 - 0xc8)
    4721:	7b 01 00 00 00 00 00 00	*(u64 *)(r1 + 0x0) = r0
    4722:	95 00 00 00 00 00 00 00	exit
    4723:	b7 02 00 00 00 00 00 00	r2 = 0x0
    4724:	7b 21 08 00 00 00 00 00	*(u64 *)(r1 + 0x8) = r2
    4725:	b7 02 00 00 00 ca 9a 3b	r2 = 0x3b9aca00
    4726:	7b 21 00 00 00 00 00 00	*(u64 *)(r1 + 0x0) = r2
    4727:	95 00 00 00 00 00 00 00	exit
    4728:	b7 00 00 00 06 00 00 00	r0 = 0x6
    4729:	15 02 02 00 00 00 00 00	if r2 == 0x0 goto +0x2 <.text+0x92c0>
    4730:	15 03 01 00 00 00 00 00	if r3 == 0x0 goto +0x1 <.text+0x92c0>
    4731:	b7 00 00 00 29 00 00 00	r0 = 0x29
    4732:	95 00 00 00 00 00 00 00	exit
    4733:	b7 00 00 00 01 00 00 00	r0 = 0x1
    4734:	95 00 00 00 00 00 00 00	exit
    4735:	7b 3a 58 ff 00 00 00 00	*(u64 *)(r10 - 0xa8) = r3
    4736:	7b 2a 50 ff 00 00 00 00	*(u64 *)(r10 - 0xb0) = r2
    4737:	79 53 78 f0 00 00 00 00	r3 = *(u64 *)(r5 - 0xf88)
    4738:	79 52 70 f0 00 00 00 00	r2 = *(u64 *)(r5 - 0xf90)
    4739:	7b 2a 20 ff 00 00 00 00	*(u64 *)(r10 - 0xe0) = r2
    4740:	79 54 68 f0 00 00 00 00	r4 = *(u64 *)(r5 - 0xf98)
    4741:	79 50 60 f0 00 00 00 00	r0 = *(u64 *)(r5 - 0xfa0)
    4742:	79 52 48 f0 00 00 00 00	r2 = *(u64 *)(r5 - 0xfb8)
    4743:	7b 2a 18 ff 00 00 00 00	*(u64 *)(r10 - 0xe8) = r2
    4744:	79 52 40 f0 00 00 00 00	r2 = *(u64 *)(r5 - 0xfc0)
    4745:	7b 2a 10 ff 00 00 00 00	*(u64 *)(r10 - 0xf0) = r2
    4746:	79 58 20 f0 00 00 00 00	r8 = *(u64 *)(r5 - 0xfe0)
    4747:	79 59 18 f0 00 00 00 00	r9 = *(u64 *)(r5 - 0xfe8)
    4748:	79 57 10 f0 00 00 00 00	r7 = *(u64 *)(r5 - 0xff0)
    4749:	79 56 08 f0 00 00 00 00	r6 = *(u64 *)(r5 - 0xff8)
    4750:	79 52 28 f0 00 00 00 00	r2 = *(u64 *)(r5 - 0xfd8)
    4751:	67 02 00 00 20 00 00 00	r2 <<= 0x20
    4752:	77 02 00 00 20 00 00 00	r2 >>= 0x20
    4753:	7b 1a 60 ff 00 00 00 00	*(u64 *)(r10 - 0xa0) = r1
    4754:	7b 3a 28 ff 00 00 00 00	*(u64 *)(r10 - 0xd8) = r3
    4755:	7b 4a 38 ff 00 00 00 00	*(u64 *)(r10 - 0xc8) = r4
    4756:	7b 9a 40 ff 00 00 00 00	*(u64 *)(r10 - 0xc0) = r9
    4757:	7b 0a 30 ff 00 00 00 00	*(u64 *)(r10 - 0xd0) = r0
    4758:	55 02 72 00 00 00 00 00	if r2 != 0x0 goto +0x72 <.text+0x9728>
    4759:	bf a1 00 00 00 00 00 00	r1 = r10
    4760:	07 01 00 00 78 ff ff ff	r1 += -0x88
    4761:	bf 82 00 00 00 00 00 00	r2 = r8
    4762:	b7 03 00 00 00 00 00 00	r3 = 0x0
    4763:	bf 64 00 00 00 00 00 00	r4 = r6
    4764:	b7 05 00 00 00 00 00 00	r5 = 0x0
    4765:	85 10 00 00 ca d1 00 00	call 0xd1ca
    4766:	bf a1 00 00 00 00 00 00	r1 = r10
    4767:	07 01 00 00 68 ff ff ff	r1 += -0x98
    4768:	bf 72 00 00 00 00 00 00	r2 = r7
    4769:	b7 03 00 00 00 00 00 00	r3 = 0x0
    4770:	bf 94 00 00 00 00 00 00	r4 = r9
    4771:	b7 05 00 00 00 00 00 00	r5 = 0x0
    4772:	85 10 00 00 c3 d1 00 00	call 0xd1c3
    4773:	bf a1 00 00 00 00 00 00	r1 = r10
    4774:	07 01 00 00 88 ff ff ff	r1 += -0x78
    4775:	bf 62 00 00 00 00 00 00	r2 = r6
    4776:	b7 03 00 00 00 00 00 00	r3 = 0x0
    4777:	bf 94 00 00 00 00 00 00	r4 = r9
    4778:	b7 05 00 00 00 00 00 00	r5 = 0x0
    4779:	85 10 00 00 bc d1 00 00	call 0xd1bc
    4780:	79 a1 80 ff 00 00 00 00	r1 = *(u64 *)(r10 - 0x80)
    4781:	b7 03 00 00 01 00 00 00	r3 = 0x1
    4782:	55 01 01 00 00 00 00 00	if r1 != 0x0 goto +0x1 <.text+0x9460>
    4783:	b7 03 00 00 00 00 00 00	r3 = 0x0
    4784:	bf 72 00 00 00 00 00 00	r2 = r7
    4785:	79 a1 70 ff 00 00 00 00	r1 = *(u64 *)(r10 - 0x90)
    4786:	b7 04 00 00 01 00 00 00	r4 = 0x1
    4787:	55 01 01 00 00 00 00 00	if r1 != 0x0 goto +0x1 <.text+0x9488>
    4788:	b7 04 00 00 00 00 00 00	r4 = 0x0
    4789:	79 a1 78 ff 00 00 00 00	r1 = *(u64 *)(r10 - 0x88)
    4790:	79 a7 68 ff 00 00 00 00	r7 = *(u64 *)(r10 - 0x98)
    4791:	b7 00 00 00 01 00 00 00	r0 = 0x1
    4792:	55 08 01 00 00 00 00 00	if r8 != 0x0 goto +0x1 <.text+0x94b0>
    4793:	b7 00 00 00 00 00 00 00	r0 = 0x0
    4794:	7b 8a 48 ff 00 00 00 00	*(u64 *)(r10 - 0xb8) = r8
    4795:	0f 17 00 00 00 00 00 00	r7 += r1
    4796:	b7 05 00 00 01 00 00 00	r5 = 0x1
    4797:	55 02 01 00 00 00 00 00	if r2 != 0x0 goto +0x1 <.text+0x94d8>
    4798:	b7 05 00 00 00 00 00 00	r5 = 0x0
    4799:	79 a1 90 ff 00 00 00 00	r1 = *(u64 *)(r10 - 0x70)
    4800:	bf 18 00 00 00 00 00 00	r8 = r1
    4801:	0f 78 00 00 00 00 00 00	r8 += r7
    4802:	b7 07 00 00 01 00 00 00	r7 = 0x1
    4803:	2d 81 01 00 00 00 00 00	if r1 > r8 goto +0x1 <.text+0x9508>
    4804:	b7 07 00 00 00 00 00 00	r7 = 0x0
